---
triple:          'arm64-apple-darwin'
binary-path:     project2
relocations:
  - { offset: 0x16DA3, size: 0x8, addend: 0x0, symName: __ZNSt3__124__put_character_sequenceB8ne180100IcNS_11char_traitsIcEEEERNS_13basic_ostreamIT_T0_EES7_PKS4_m, symObjAddr: 0x2508, symBinAddr: 0x100003E1C, symSize: 0x1EC }
  - { offset: 0x17C00, size: 0x8, addend: 0x0, symName: __ZNSt3__17advanceB8ne180100INS_11__wrap_iterIPNS_12basic_stringIcNS_11char_traitsIcEENS_9allocatorIcEEEEEEllvEEvRT_T0_, symObjAddr: 0xA17C, symBinAddr: 0x10000BA90, symSize: 0x38 }
  - { offset: 0x189DC, size: 0x8, addend: 0x0, symName: __ZNSt3__17advanceB8ne180100INS_11__wrap_iterIP9PredicateEEllvEEvRT_T0_, symObjAddr: 0xFC50, symBinAddr: 0x100011564, symSize: 0x38 }
  - { offset: 0x18BAF, size: 0x8, addend: 0x0, symName: __ZNSt3__17advanceB8ne180100IP9ParameterllvEEvRT_T0_, symObjAddr: 0x11474, symBinAddr: 0x100012D88, symSize: 0x38 }
  - { offset: 0x18C1A, size: 0x8, addend: 0x0, symName: __ZNSt3__17advanceB8ne180100INS_11__wrap_iterIP9ParameterEEllvEEvRT_T0_, symObjAddr: 0x151B0, symBinAddr: 0x100016AC4, symSize: 0x38 }
  - { offset: 0x191A8, size: 0x8, addend: 0x0, symName: __ZNSt3__17advanceB8ne180100INS_11__wrap_iterIP4RuleEEllvEEvRT_T0_, symObjAddr: 0x17C68, symBinAddr: 0x10001957C, symSize: 0x38 }
  - { offset: 0x1937B, size: 0x8, addend: 0x0, symName: __ZNSt3__17advanceB8ne180100IP9PredicatellvEEvRT_T0_, symObjAddr: 0x19680, symBinAddr: 0x10001AF94, symSize: 0x38 }
  - { offset: 0x19F15, size: 0x8, addend: 0x0, symName: __ZNSt3__1lsB8ne180100INS_11char_traitsIcEEEERNS_13basic_ostreamIcT_EES6_PKc, symObjAddr: 0x454, symBinAddr: 0x100001D68, symSize: 0x48 }
  - { offset: 0x19F5B, size: 0x8, addend: 0x0, symName: __ZNSt3__14endlB8ne180100IcNS_11char_traitsIcEEEERNS_13basic_ostreamIT_T0_EES7_, symObjAddr: 0x4C8, symBinAddr: 0x100001DDC, symSize: 0x58 }
  - { offset: 0x19FA6, size: 0x8, addend: 0x0, symName: __ZNSt3__1eqB8ne180100IcNS_11char_traitsIcEENS_9allocatorIcEEEEbRKNS_12basic_stringIT_T0_T1_EEPKS6_, symObjAddr: 0x1820, symBinAddr: 0x100003134, symSize: 0xAC }
  - { offset: 0x1A00D, size: 0x8, addend: 0x0, symName: __ZNSt3__1lsB8ne180100INS_11char_traitsIcEEEERNS_13basic_ostreamIcT_EES6_c, symObjAddr: 0x18CC, symBinAddr: 0x1000031E0, symSize: 0x34 }
  - { offset: 0x1A086, size: 0x8, addend: 0x0, symName: __ZNSt3__119__libcpp_deallocateB8ne180100EPvmm, symObjAddr: 0x2318, symBinAddr: 0x100003C2C, symSize: 0x60 }
  - { offset: 0x1A0EB, size: 0x8, addend: 0x0, symName: __ZNSt3__124__is_overaligned_for_newB8ne180100Em, symObjAddr: 0x2378, symBinAddr: 0x100003C8C, symSize: 0x20 }
  - { offset: 0x1A119, size: 0x8, addend: 0x0, symName: __ZNSt3__127__do_deallocate_handle_sizeB8ne180100IJSt11align_val_tEEEvPvmDpT_, symObjAddr: 0x2398, symBinAddr: 0x100003CAC, symSize: 0x30 }
  - { offset: 0x1A16C, size: 0x8, addend: 0x0, symName: __ZNSt3__127__do_deallocate_handle_sizeB8ne180100IJEEEvPvmDpT_, symObjAddr: 0x23C8, symBinAddr: 0x100003CDC, symSize: 0x28 }
  - { offset: 0x1A1AA, size: 0x8, addend: 0x0, symName: __ZNSt3__124__libcpp_operator_deleteB8ne180100IJPvSt11align_val_tEEEvDpT_, symObjAddr: 0x23F0, symBinAddr: 0x100003D04, symSize: 0x2C }
  - { offset: 0x1A1F3, size: 0x8, addend: 0x0, symName: __ZNSt3__124__libcpp_operator_deleteB8ne180100IJPvEEEvDpT_, symObjAddr: 0x241C, symBinAddr: 0x100003D30, symSize: 0x24 }
  - { offset: 0x1A228, size: 0x8, addend: 0x0, symName: __ZNSt3__118__constexpr_strlenB8ne180100EPKc, symObjAddr: 0x24E4, symBinAddr: 0x100003DF8, symSize: 0x24 }
  - { offset: 0x1A254, size: 0x8, addend: 0x0, symName: __ZNSt3__116__pad_and_outputB8ne180100IcNS_11char_traitsIcEEEENS_19ostreambuf_iteratorIT_T0_EES6_PKS4_S8_S8_RNS_8ios_baseES4_, symObjAddr: 0x2710, symBinAddr: 0x100004024, symSize: 0x240 }
  - { offset: 0x1A323, size: 0x8, addend: 0x0, symName: __ZNSt3__112__to_addressB8ne180100IcEEPT_S2_, symObjAddr: 0x2C0C, symBinAddr: 0x100004520, symSize: 0x14 }
  - { offset: 0x1A358, size: 0x8, addend: 0x0, symName: __ZNSt3__19use_facetB8ne180100INS_5ctypeIcEEEERKT_RKNS_6localeE, symObjAddr: 0x2D64, symBinAddr: 0x100004678, symSize: 0x2C }
  - { offset: 0x1A825, size: 0x8, addend: 0x0, symName: __ZNSt3__112__to_addressB8ne180100I5TokenEEPT_S3_, symObjAddr: 0x306C, symBinAddr: 0x100004980, symSize: 0x14 }
  - { offset: 0x1A85A, size: 0x8, addend: 0x0, symName: __ZNSt3__13maxB8ne180100ImEERKT_S3_S3_, symObjAddr: 0x364C, symBinAddr: 0x100004F60, symSize: 0x2C }
  - { offset: 0x1A89D, size: 0x8, addend: 0x0, symName: __ZNSt3__13minB8ne180100ImEERKT_S3_S3_, symObjAddr: 0x3678, symBinAddr: 0x100004F8C, symSize: 0x2C }
  - { offset: 0x1AACA, size: 0x8, addend: 0x0, symName: __ZNSt3__13minB8ne180100ImNS_6__lessIvvEEEERKT_S5_S5_T0_, symObjAddr: 0x3704, symBinAddr: 0x100005018, symSize: 0x54 }
  - { offset: 0x1AB69, size: 0x8, addend: 0x0, symName: __ZNSt3__120__throw_length_errorB8ne180100EPKc, symObjAddr: 0x37E4, symBinAddr: 0x1000050F8, symSize: 0x64 }
  - { offset: 0x1AB91, size: 0x8, addend: 0x0, symName: __ZNSt3__13maxB8ne180100ImNS_6__lessIvvEEEERKT_S5_S5_T0_, symObjAddr: 0x3920, symBinAddr: 0x100005234, symSize: 0x54 }
  - { offset: 0x1ABEB, size: 0x8, addend: 0x0, symName: __ZNSt3__119__allocate_at_leastB8ne180100INS_9allocatorI5TokenEEEENS_19__allocation_resultINS_16allocator_traitsIT_E7pointerEEERS6_m, symObjAddr: 0x3A90, symBinAddr: 0x1000053A4, symSize: 0x40 }
  - { offset: 0x1AC2E, size: 0x8, addend: 0x0, symName: __ZNSt3__117__libcpp_allocateB8ne180100Emm, symObjAddr: 0x3C18, symBinAddr: 0x10000552C, symSize: 0x60 }
  - { offset: 0x1AC88, size: 0x8, addend: 0x0, symName: __ZNSt3__121__libcpp_operator_newB8ne180100IJmSt11align_val_tEEEPvDpT_, symObjAddr: 0x3C78, symBinAddr: 0x10000558C, symSize: 0x2C }
  - { offset: 0x1ACD5, size: 0x8, addend: 0x0, symName: __ZNSt3__121__libcpp_operator_newB8ne180100IJmEEEPvDpT_, symObjAddr: 0x3CA4, symBinAddr: 0x1000055B8, symSize: 0x24 }
  - { offset: 0x1AD0E, size: 0x8, addend: 0x0, symName: __ZNSt3__142__uninitialized_allocator_move_if_noexceptB8ne180100INS_9allocatorI5TokenEENS_16reverse_iteratorIPS2_EES6_S6_EET2_RT_T0_T1_S7_, symObjAddr: 0x3D3C, symBinAddr: 0x100005650, symSize: 0x12C }
  - { offset: 0x1ADAE, size: 0x8, addend: 0x0, symName: __ZNSt3__14swapB8ne180100IP5TokenEENS_9enable_ifIXaasr21is_move_constructibleIT_EE5valuesr18is_move_assignableIS4_EE5valueEvE4typeERS4_S7_, symObjAddr: 0x3EB4, symBinAddr: 0x1000057C8, symSize: 0x3C }
  - { offset: 0x1ADFF, size: 0x8, addend: 0x0, symName: __ZNSt3__122__make_exception_guardB8ne180100INS_29_AllocatorDestroyRangeReverseINS_9allocatorI5TokenEENS_16reverse_iteratorIPS3_EEEEEENS_28__exception_guard_exceptionsIT_EESA_, symObjAddr: 0x3F04, symBinAddr: 0x100005818, symSize: 0x4C }
  - { offset: 0x1AE35, size: 0x8, addend: 0x0, symName: __ZNSt3__1neB8ne180100IP5TokenS2_EEbRKNS_16reverse_iteratorIT_EERKNS3_IT0_EE, symObjAddr: 0x3F94, symBinAddr: 0x1000058A8, symSize: 0x48 }
  - { offset: 0x1AE81, size: 0x8, addend: 0x0, symName: __ZNSt3__112__to_addressB8ne180100INS_16reverse_iteratorIP5TokenEEvEEu7__decayIDTclsr19__to_address_helperIT_EE6__callclsr3stdE7declvalIRKS5_EEEEES7_, symObjAddr: 0x3FDC, symBinAddr: 0x1000058F0, symSize: 0x24 }
  - { offset: 0x1AEE0, size: 0x8, addend: 0x0, symName: __ZNSt3__119__allocator_destroyB8ne180100INS_9allocatorI5TokenEENS_16reverse_iteratorINS4_IPS2_EEEES7_EEvRT_T0_T1_, symObjAddr: 0x428C, symBinAddr: 0x100005BA0, symSize: 0x70 }
  - { offset: 0x1AF45, size: 0x8, addend: 0x0, symName: __ZNSt3__1neB8ne180100INS_16reverse_iteratorIP5TokenEES4_EEbRKNS1_IT_EERKNS1_IT0_EE, symObjAddr: 0x4338, symBinAddr: 0x100005C4C, symSize: 0x60 }
  - { offset: 0x1AF91, size: 0x8, addend: 0x0, symName: __ZNSt3__112__to_addressB8ne180100INS_16reverse_iteratorINS1_IP5TokenEEEEvEEu7__decayIDTclsr19__to_address_helperIT_EE6__callclsr3stdE7declvalIRKS6_EEEEES8_, symObjAddr: 0x43C4, symBinAddr: 0x100005CD8, symSize: 0x24 }
  - { offset: 0x1AFF0, size: 0x8, addend: 0x0, symName: __ZNSt3__122__make_exception_guardB8ne180100INS_6vectorI5TokenNS_9allocatorIS2_EEE16__destroy_vectorEEENS_28__exception_guard_exceptionsIT_EES8_, symObjAddr: 0x4AB0, symBinAddr: 0x1000063C4, symSize: 0x40 }
  - { offset: 0x1B025, size: 0x8, addend: 0x0, symName: __ZNSt3__130__uninitialized_allocator_copyB8ne180100INS_9allocatorI5TokenEEPS2_S4_S4_EET2_RT_T0_T1_S5_, symObjAddr: 0x4D24, symBinAddr: 0x100006638, symSize: 0x80 }
  - { offset: 0x1B0C2, size: 0x8, addend: 0x0, symName: __ZNSt3__114__unwrap_rangeB8ne180100IP5TokenS2_EENS_4pairIT0_S4_EET_S6_, symObjAddr: 0x4DA4, symBinAddr: 0x1000066B8, symSize: 0x60 }
  - { offset: 0x1B10E, size: 0x8, addend: 0x0, symName: __ZNSt3__135__uninitialized_allocator_copy_implB8ne180100INS_9allocatorI5TokenEEPS2_S4_S4_EET2_RT_T0_T1_S5_, symObjAddr: 0x4E04, symBinAddr: 0x100006718, symSize: 0xF4 }
  - { offset: 0x1B1AC, size: 0x8, addend: 0x0, symName: __ZNSt3__113__unwrap_iterB8ne180100IP5TokenNS_18__unwrap_iter_implIS2_Lb1EEELi0EEEDTclsrT0_8__unwrapclsr3stdE7declvalIT_EEEES6_, symObjAddr: 0x4EF8, symBinAddr: 0x10000680C, symSize: 0x24 }
  - { offset: 0x1B1F0, size: 0x8, addend: 0x0, symName: __ZNSt3__113__rewrap_iterB8ne180100IP5TokenS2_NS_18__unwrap_iter_implIS2_Lb1EEEEET_S5_T0_, symObjAddr: 0x4F1C, symBinAddr: 0x100006830, symSize: 0x3C }
  - { offset: 0x1B245, size: 0x8, addend: 0x0, symName: __ZNSt3__19make_pairB8ne180100IP5TokenS2_EENS_4pairINS_18__unwrap_ref_decayIT_E4typeENS4_IT0_E4typeEEEOS5_OS8_, symObjAddr: 0x4F58, symBinAddr: 0x10000686C, symSize: 0x38 }
  - { offset: 0x1B368, size: 0x8, addend: 0x0, symName: __ZNSt3__122__make_exception_guardB8ne180100INS_29_AllocatorDestroyRangeReverseINS_9allocatorI5TokenEEPS3_EEEENS_28__exception_guard_exceptionsIT_EES8_, symObjAddr: 0x5000, symBinAddr: 0x100006914, symSize: 0x4C }
  - { offset: 0x1B39E, size: 0x8, addend: 0x0, symName: __ZNSt3__119__allocator_destroyB8ne180100INS_9allocatorI5TokenEENS_16reverse_iteratorIPS2_EES6_EEvRT_T0_T1_, symObjAddr: 0x5318, symBinAddr: 0x100006C2C, symSize: 0x70 }
  - { offset: 0x1B454, size: 0x8, addend: 0x0, symName: __ZNSt3__1lsB8ne180100IcNS_11char_traitsIcEENS_9allocatorIcEEEERNS_13basic_ostreamIT_T0_EES9_RKNS_12basic_stringIS6_S7_T1_EE, symObjAddr: 0x5B2C, symBinAddr: 0x100007440, symSize: 0x4C }
  - { offset: 0x1B4DF, size: 0x8, addend: 0x0, symName: __ZNSt3__1neB8ne180100IP9PredicateEEbRKNS_11__wrap_iterIT_EES7_, symObjAddr: 0x70B8, symBinAddr: 0x1000089CC, symSize: 0x34 }
  - { offset: 0x1B522, size: 0x8, addend: 0x0, symName: __ZNSt3__1neB8ne180100IP4RuleEEbRKNS_11__wrap_iterIT_EES7_, symObjAddr: 0x7664, symBinAddr: 0x100008F78, symSize: 0x34 }
  - { offset: 0x1B565, size: 0x8, addend: 0x0, symName: __ZNSt3__1miB8ne180100IPK5TokenS3_EEDTmicldtfp_4baseEcldtfp0_4baseEERKNS_11__wrap_iterIT_EERKNS5_IT0_EE, symObjAddr: 0x7C6C, symBinAddr: 0x100009580, symSize: 0x48 }
  - { offset: 0x1B5B1, size: 0x8, addend: 0x0, symName: __ZNSt3__14moveB8ne180100IP5TokenS2_EET0_T_S4_S3_, symObjAddr: 0x7D2C, symBinAddr: 0x100009640, symSize: 0x40 }
  - { offset: 0x1B60B, size: 0x8, addend: 0x0, symName: __ZNSt3__16__moveB8ne180100INS_17_ClassicAlgPolicyEP5TokenS3_S3_EENS_4pairIT0_T2_EES5_T1_S6_, symObjAddr: 0x7E7C, symBinAddr: 0x100009790, symSize: 0x44 }
  - { offset: 0x1B677, size: 0x8, addend: 0x0, symName: __ZNSt3__123__dispatch_copy_or_moveB8ne180100INS_17_ClassicAlgPolicyENS_11__move_loopIS1_EENS_14__move_trivialEP5TokenS6_S6_EENS_4pairIT2_T4_EES8_T3_S9_, symObjAddr: 0x7EC0, symBinAddr: 0x1000097D4, symSize: 0x44 }
  - { offset: 0x1B6F5, size: 0x8, addend: 0x0, symName: __ZNSt3__121__unwrap_and_dispatchB8ne180100INS_10__overloadINS_11__move_loopINS_17_ClassicAlgPolicyEEENS_14__move_trivialEEEP5TokenS8_S8_Li0EEENS_4pairIT0_T2_EESA_T1_SB_, symObjAddr: 0x7F04, symBinAddr: 0x100009818, symSize: 0xB4 }
  - { offset: 0x1B7DE, size: 0x8, addend: 0x0, symName: __ZNSt3__114__rewrap_rangeB8ne180100IP5TokenS2_EET_S3_T0_, symObjAddr: 0x8048, symBinAddr: 0x10000995C, symSize: 0x2C }
  - { offset: 0x1BA28, size: 0x8, addend: 0x0, symName: __ZNSt3__1neB8ne180100IPNS_12basic_stringIcNS_11char_traitsIcEENS_9allocatorIcEEEEEEbRKNS_11__wrap_iterIT_EESC_, symObjAddr: 0x84D0, symBinAddr: 0x100009DE4, symSize: 0x34 }
  - { offset: 0x1BA6B, size: 0x8, addend: 0x0, symName: __ZNSt3__112__to_addressB8ne180100INS_12basic_stringIcNS_11char_traitsIcEENS_9allocatorIcEEEEEEPT_S8_, symObjAddr: 0x8A9C, symBinAddr: 0x10000A3B0, symSize: 0x14 }
  - { offset: 0x1BAA0, size: 0x8, addend: 0x0, symName: __ZNSt3__119__allocate_at_leastB8ne180100INS_9allocatorINS_12basic_stringIcNS_11char_traitsIcEENS1_IcEEEEEEEENS_19__allocation_resultINS_16allocator_traitsIT_E7pointerEEERSA_m, symObjAddr: 0x90E0, symBinAddr: 0x10000A9F4, symSize: 0x40 }
  - { offset: 0x1BAE3, size: 0x8, addend: 0x0, symName: __ZNSt3__142__uninitialized_allocator_move_if_noexceptB8ne180100INS_9allocatorINS_12basic_stringIcNS_11char_traitsIcEENS1_IcEEEEEENS_16reverse_iteratorIPS6_EESA_SA_EET2_RT_T0_T1_SB_, symObjAddr: 0x92A8, symBinAddr: 0x10000ABBC, symSize: 0x12C }
  - { offset: 0x1BB83, size: 0x8, addend: 0x0, symName: __ZNSt3__14swapB8ne180100IPNS_12basic_stringIcNS_11char_traitsIcEENS_9allocatorIcEEEEEENS_9enable_ifIXaasr21is_move_constructibleIT_EE5valuesr18is_move_assignableIS9_EE5valueEvE4typeERS9_SC_, symObjAddr: 0x9420, symBinAddr: 0x10000AD34, symSize: 0x3C }
  - { offset: 0x1BBD4, size: 0x8, addend: 0x0, symName: __ZNSt3__122__make_exception_guardB8ne180100INS_29_AllocatorDestroyRangeReverseINS_9allocatorINS_12basic_stringIcNS_11char_traitsIcEENS2_IcEEEEEENS_16reverse_iteratorIPS7_EEEEEENS_28__exception_guard_exceptionsIT_EESE_, symObjAddr: 0x9470, symBinAddr: 0x10000AD84, symSize: 0x4C }
  - { offset: 0x1BC0A, size: 0x8, addend: 0x0, symName: __ZNSt3__1neB8ne180100IPNS_12basic_stringIcNS_11char_traitsIcEENS_9allocatorIcEEEES7_EEbRKNS_16reverse_iteratorIT_EERKNS8_IT0_EE, symObjAddr: 0x9500, symBinAddr: 0x10000AE14, symSize: 0x48 }
  - { offset: 0x1BC56, size: 0x8, addend: 0x0, symName: __ZNSt3__112__to_addressB8ne180100INS_16reverse_iteratorIPNS_12basic_stringIcNS_11char_traitsIcEENS_9allocatorIcEEEEEEvEEu7__decayIDTclsr19__to_address_helperIT_EE6__callclsr3stdE7declvalIRKSA_EEEEESC_, symObjAddr: 0x957C, symBinAddr: 0x10000AE90, symSize: 0x24 }
  - { offset: 0x1BCB5, size: 0x8, addend: 0x0, symName: __ZNSt3__119__allocator_destroyB8ne180100INS_9allocatorINS_12basic_stringIcNS_11char_traitsIcEENS1_IcEEEEEENS_16reverse_iteratorINS8_IPS6_EEEESB_EEvRT_T0_T1_, symObjAddr: 0x985C, symBinAddr: 0x10000B170, symSize: 0x70 }
  - { offset: 0x1BD1A, size: 0x8, addend: 0x0, symName: __ZNSt3__1neB8ne180100INS_16reverse_iteratorIPNS_12basic_stringIcNS_11char_traitsIcEENS_9allocatorIcEEEEEES9_EEbRKNS1_IT_EERKNS1_IT0_EE, symObjAddr: 0x9908, symBinAddr: 0x10000B21C, symSize: 0x60 }
  - { offset: 0x1BD66, size: 0x8, addend: 0x0, symName: __ZNSt3__112__to_addressB8ne180100INS_16reverse_iteratorINS1_IPNS_12basic_stringIcNS_11char_traitsIcEENS_9allocatorIcEEEEEEEEvEEu7__decayIDTclsr19__to_address_helperIT_EE6__callclsr3stdE7declvalIRKSB_EEEEESD_, symObjAddr: 0x9994, symBinAddr: 0x10000B2A8, symSize: 0x24 }
  - { offset: 0x1BDC5, size: 0x8, addend: 0x0, symName: __ZNSt3__18distanceB8ne180100INS_11__wrap_iterIPNS_12basic_stringIcNS_11char_traitsIcEENS_9allocatorIcEEEEEEEENS_15iterator_traitsIT_E15difference_typeESB_SB_, symObjAddr: 0xA0BC, symBinAddr: 0x10000B9D0, symSize: 0x3C }
  - { offset: 0x1BE08, size: 0x8, addend: 0x0, symName: __ZNSt3__1miB8ne180100IPKNS_12basic_stringIcNS_11char_traitsIcEENS_9allocatorIcEEEEPS6_EEDTmicldtfp_4baseEcldtfp0_4baseEERKNS_11__wrap_iterIT_EERKNSB_IT0_EE, symObjAddr: 0xA0F8, symBinAddr: 0x10000BA0C, symSize: 0x48 }
  - { offset: 0x1BE54, size: 0x8, addend: 0x0, symName: __ZNSt3__14nextB8ne180100INS_11__wrap_iterIPNS_12basic_stringIcNS_11char_traitsIcEENS_9allocatorIcEEEEEELi0EEET_SA_NS_15iterator_traitsISA_E15difference_typeE, symObjAddr: 0xA140, symBinAddr: 0x10000BA54, symSize: 0x3C }
  - { offset: 0x1BE9D, size: 0x8, addend: 0x0, symName: __ZNSt3__14copyB8ne180100INS_11__wrap_iterIPNS_12basic_stringIcNS_11char_traitsIcEENS_9allocatorIcEEEEEES8_EET0_T_SB_SA_, symObjAddr: 0xA38C, symBinAddr: 0x10000BCA0, symSize: 0x50 }
  - { offset: 0x1BEF7, size: 0x8, addend: 0x0, symName: __ZNSt3__121__convert_to_integralB8ne180100El, symObjAddr: 0xA658, symBinAddr: 0x10000BF6C, symSize: 0x14 }
  - { offset: 0x1BF23, size: 0x8, addend: 0x0, symName: __ZNSt3__19__advanceB8ne180100INS_11__wrap_iterIPNS_12basic_stringIcNS_11char_traitsIcEENS_9allocatorIcEEEEEEEEvRT_NS_15iterator_traitsISA_E15difference_typeENS_26random_access_iterator_tagE, symObjAddr: 0xA66C, symBinAddr: 0x10000BF80, symSize: 0x2C }
  - { offset: 0x1BF6C, size: 0x8, addend: 0x0, symName: __ZNSt3__130__uninitialized_allocator_copyB8ne180100INS_9allocatorINS_12basic_stringIcNS_11char_traitsIcEENS1_IcEEEEEENS_11__wrap_iterIPS6_EESA_S9_EET2_RT_T0_T1_SB_, symObjAddr: 0xA6C8, symBinAddr: 0x10000BFDC, symSize: 0x90 }
  - { offset: 0x1C009, size: 0x8, addend: 0x0, symName: __ZNSt3__114__unwrap_rangeB8ne180100INS_11__wrap_iterIPNS_12basic_stringIcNS_11char_traitsIcEENS_9allocatorIcEEEEEES8_EENS_4pairIT0_SB_EET_SD_, symObjAddr: 0xA758, symBinAddr: 0x10000C06C, symSize: 0x70 }
  - { offset: 0x1C055, size: 0x8, addend: 0x0, symName: __ZNSt3__135__uninitialized_allocator_copy_implB8ne180100INS_9allocatorINS_12basic_stringIcNS_11char_traitsIcEENS1_IcEEEEEEPS6_S8_S8_EET2_RT_T0_T1_S9_, symObjAddr: 0xA7C8, symBinAddr: 0x10000C0DC, symSize: 0xF4 }
  - { offset: 0x1C0F3, size: 0x8, addend: 0x0, symName: __ZNSt3__113__unwrap_iterB8ne180100IPNS_12basic_stringIcNS_11char_traitsIcEENS_9allocatorIcEEEENS_18__unwrap_iter_implIS7_Lb1EEELi0EEEDTclsrT0_8__unwrapclsr3stdE7declvalIT_EEEESB_, symObjAddr: 0xA8BC, symBinAddr: 0x10000C1D0, symSize: 0x24 }
  - { offset: 0x1C137, size: 0x8, addend: 0x0, symName: __ZNSt3__113__rewrap_iterB8ne180100IPNS_12basic_stringIcNS_11char_traitsIcEENS_9allocatorIcEEEES7_NS_18__unwrap_iter_implIS7_Lb1EEEEET_SA_T0_, symObjAddr: 0xA8E0, symBinAddr: 0x10000C1F4, symSize: 0x3C }
  - { offset: 0x1C18C, size: 0x8, addend: 0x0, symName: __ZNSt3__19make_pairB8ne180100IPNS_12basic_stringIcNS_11char_traitsIcEENS_9allocatorIcEEEES7_EENS_4pairINS_18__unwrap_ref_decayIT_E4typeENS9_IT0_E4typeEEEOSA_OSD_, symObjAddr: 0xA91C, symBinAddr: 0x10000C230, symSize: 0x38 }
  - { offset: 0x1C1DB, size: 0x8, addend: 0x0, symName: __ZNSt3__113__unwrap_iterB8ne180100INS_11__wrap_iterIPNS_12basic_stringIcNS_11char_traitsIcEENS_9allocatorIcEEEEEENS_18__unwrap_iter_implIS9_Lb1EEELi0EEEDTclsrT0_8__unwrapclsr3stdE7declvalIT_EEEESD_, symObjAddr: 0xA954, symBinAddr: 0x10000C268, symSize: 0x2C }
  - { offset: 0x1C346, size: 0x8, addend: 0x0, symName: __ZNSt3__112__to_addressB8ne180100INS_11__wrap_iterIPNS_12basic_stringIcNS_11char_traitsIcEENS_9allocatorIcEEEEEEvEEu7__decayIDTclsr19__to_address_helperIT_EE6__callclsr3stdE7declvalIRKSA_EEEEESC_, symObjAddr: 0xAA18, symBinAddr: 0x10000C32C, symSize: 0x24 }
  - { offset: 0x1C421, size: 0x8, addend: 0x0, symName: __ZNSt3__122__make_exception_guardB8ne180100INS_29_AllocatorDestroyRangeReverseINS_9allocatorINS_12basic_stringIcNS_11char_traitsIcEENS2_IcEEEEEEPS7_EEEENS_28__exception_guard_exceptionsIT_EESC_, symObjAddr: 0xAA98, symBinAddr: 0x10000C3AC, symSize: 0x4C }
  - { offset: 0x1C457, size: 0x8, addend: 0x0, symName: __ZNSt3__119__allocator_destroyB8ne180100INS_9allocatorINS_12basic_stringIcNS_11char_traitsIcEENS1_IcEEEEEENS_16reverse_iteratorIPS6_EESA_EEvRT_T0_T1_, symObjAddr: 0xAD28, symBinAddr: 0x10000C63C, symSize: 0x70 }
  - { offset: 0x1C50D, size: 0x8, addend: 0x0, symName: __ZNSt3__113move_backwardB8ne180100IPNS_12basic_stringIcNS_11char_traitsIcEENS_9allocatorIcEEEES7_EET0_T_S9_S8_, symObjAddr: 0xAE14, symBinAddr: 0x10000C728, symSize: 0x40 }
  - { offset: 0x1C567, size: 0x8, addend: 0x0, symName: __ZNSt3__115__move_backwardB8ne180100INS_17_ClassicAlgPolicyEPNS_12basic_stringIcNS_11char_traitsIcEENS_9allocatorIcEEEES8_S8_EENS_4pairIT0_T2_EESA_T1_SB_, symObjAddr: 0xAE54, symBinAddr: 0x10000C768, symSize: 0x44 }
  - { offset: 0x1C5D3, size: 0x8, addend: 0x0, symName: __ZNSt3__123__dispatch_copy_or_moveB8ne180100INS_17_ClassicAlgPolicyENS_20__move_backward_loopIS1_EENS_23__move_backward_trivialEPNS_12basic_stringIcNS_11char_traitsIcEENS_9allocatorIcEEEESB_SB_EENS_4pairIT2_T4_EESD_T3_SE_, symObjAddr: 0xAE98, symBinAddr: 0x10000C7AC, symSize: 0x44 }
  - { offset: 0x1C651, size: 0x8, addend: 0x0, symName: __ZNSt3__121__unwrap_and_dispatchB8ne180100INS_10__overloadINS_20__move_backward_loopINS_17_ClassicAlgPolicyEEENS_23__move_backward_trivialEEEPNS_12basic_stringIcNS_11char_traitsIcEENS_9allocatorIcEEEESD_SD_Li0EEENS_4pairIT0_T2_EESF_T1_SG_, symObjAddr: 0xAEDC, symBinAddr: 0x10000C7F0, symSize: 0xB4 }
  - { offset: 0x1C6DF, size: 0x8, addend: 0x0, symName: __ZNSt3__114__unwrap_rangeB8ne180100IPNS_12basic_stringIcNS_11char_traitsIcEENS_9allocatorIcEEEES7_EENS_4pairIT0_S9_EET_SB_, symObjAddr: 0xAF90, symBinAddr: 0x10000C8A4, symSize: 0x60 }
  - { offset: 0x1C83A, size: 0x8, addend: 0x0, symName: __ZNSt3__114__rewrap_rangeB8ne180100IPNS_12basic_stringIcNS_11char_traitsIcEENS_9allocatorIcEEEES7_EET_S8_T0_, symObjAddr: 0xB094, symBinAddr: 0x10000C9A8, symSize: 0x2C }
  - { offset: 0x1C891, size: 0x8, addend: 0x0, symName: __ZNSt3__16__copyB8ne180100INS_17_ClassicAlgPolicyENS_11__wrap_iterIPNS_12basic_stringIcNS_11char_traitsIcEENS_9allocatorIcEEEEEESA_S9_EENS_4pairIT0_T2_EESC_T1_SD_, symObjAddr: 0xB104, symBinAddr: 0x10000CA18, symSize: 0x54 }
  - { offset: 0x1C8FD, size: 0x8, addend: 0x0, symName: __ZNSt3__123__dispatch_copy_or_moveB8ne180100INS_17_ClassicAlgPolicyENS_11__copy_loopIS1_EENS_14__copy_trivialENS_11__wrap_iterIPNS_12basic_stringIcNS_11char_traitsIcEENS_9allocatorIcEEEEEESD_SC_EENS_4pairIT2_T4_EESF_T3_SG_, symObjAddr: 0xB158, symBinAddr: 0x10000CA6C, symSize: 0x54 }
  - { offset: 0x1C97B, size: 0x8, addend: 0x0, symName: __ZNSt3__121__unwrap_and_dispatchB8ne180100INS_10__overloadINS_11__copy_loopINS_17_ClassicAlgPolicyEEENS_14__copy_trivialEEENS_11__wrap_iterIPNS_12basic_stringIcNS_11char_traitsIcEENS_9allocatorIcEEEEEESF_SE_Li0EEENS_4pairIT0_T2_EESH_T1_SI_, symObjAddr: 0xB1AC, symBinAddr: 0x10000CAC0, symSize: 0xCC }
  - { offset: 0x1CB18, size: 0x8, addend: 0x0, symName: __ZNSt3__19make_pairB8ne180100INS_11__wrap_iterIPNS_12basic_stringIcNS_11char_traitsIcEENS_9allocatorIcEEEEEES8_EENS_4pairINS_18__unwrap_ref_decayIT_E4typeENSB_IT0_E4typeEEEOSC_OSF_, symObjAddr: 0xB300, symBinAddr: 0x10000CC14, symSize: 0x38 }
  - { offset: 0x1CB67, size: 0x8, addend: 0x0, symName: __ZNSt3__114__rewrap_rangeB8ne180100INS_11__wrap_iterIPNS_12basic_stringIcNS_11char_traitsIcEENS_9allocatorIcEEEEEES8_EET_SA_T0_, symObjAddr: 0xB338, symBinAddr: 0x10000CC4C, symSize: 0x3C }
  - { offset: 0x1CC87, size: 0x8, addend: 0x0, symName: __ZNSt3__113__rewrap_iterB8ne180100INS_11__wrap_iterIPNS_12basic_stringIcNS_11char_traitsIcEENS_9allocatorIcEEEEEES8_NS_18__unwrap_iter_implIS9_Lb1EEEEET_SC_T0_, symObjAddr: 0xB3E4, symBinAddr: 0x10000CCF8, symSize: 0x4C }
  - { offset: 0x1CCDC, size: 0x8, addend: 0x0, symName: __ZNSt3__142__uninitialized_allocator_move_if_noexceptB8ne180100INS_9allocatorINS_12basic_stringIcNS_11char_traitsIcEENS1_IcEEEEEEPS6_S8_S8_EET2_RT_T0_T1_S9_, symObjAddr: 0xB59C, symBinAddr: 0x10000CEB0, symSize: 0xF4 }
  - { offset: 0x1CD7A, size: 0x8, addend: 0x0, symName: __ZNSt3__110__distanceB8ne180100INS_11__wrap_iterIPNS_12basic_stringIcNS_11char_traitsIcEENS_9allocatorIcEEEEEEEENS_15iterator_traitsIT_E15difference_typeESB_SB_NS_26random_access_iterator_tagE, symObjAddr: 0xB6E4, symBinAddr: 0x10000CFF8, symSize: 0x30 }
  - { offset: 0x1CDC7, size: 0x8, addend: 0x0, symName: __ZNSt3__1miB8ne180100IPNS_12basic_stringIcNS_11char_traitsIcEENS_9allocatorIcEEEES7_EEDTmicldtfp_4baseEcldtfp0_4baseEERKNS_11__wrap_iterIT_EERKNS9_IT0_EE, symObjAddr: 0xB714, symBinAddr: 0x10000D028, symSize: 0x48 }
  - { offset: 0x1CE13, size: 0x8, addend: 0x0, symName: __ZNSt3__112__to_addressB8ne180100I9ParameterEEPT_S3_, symObjAddr: 0xBC54, symBinAddr: 0x10000D568, symSize: 0x14 }
  - { offset: 0x1CE48, size: 0x8, addend: 0x0, symName: __ZNSt3__119__allocate_at_leastB8ne180100INS_9allocatorI9ParameterEEEENS_19__allocation_resultINS_16allocator_traitsIT_E7pointerEEERS6_m, symObjAddr: 0xC300, symBinAddr: 0x10000DC14, symSize: 0x40 }
  - { offset: 0x1CE8B, size: 0x8, addend: 0x0, symName: __ZNSt3__142__uninitialized_allocator_move_if_noexceptB8ne180100INS_9allocatorI9ParameterEENS_16reverse_iteratorIPS2_EES6_S6_EET2_RT_T0_T1_S7_, symObjAddr: 0xC4C8, symBinAddr: 0x10000DDDC, symSize: 0x12C }
  - { offset: 0x1CF2B, size: 0x8, addend: 0x0, symName: __ZNSt3__14swapB8ne180100IP9ParameterEENS_9enable_ifIXaasr21is_move_constructibleIT_EE5valuesr18is_move_assignableIS4_EE5valueEvE4typeERS4_S7_, symObjAddr: 0xC640, symBinAddr: 0x10000DF54, symSize: 0x3C }
  - { offset: 0x1CF7C, size: 0x8, addend: 0x0, symName: __ZNSt3__122__make_exception_guardB8ne180100INS_29_AllocatorDestroyRangeReverseINS_9allocatorI9ParameterEENS_16reverse_iteratorIPS3_EEEEEENS_28__exception_guard_exceptionsIT_EESA_, symObjAddr: 0xC690, symBinAddr: 0x10000DFA4, symSize: 0x4C }
  - { offset: 0x1CFB2, size: 0x8, addend: 0x0, symName: __ZNSt3__1neB8ne180100IP9ParameterS2_EEbRKNS_16reverse_iteratorIT_EERKNS3_IT0_EE, symObjAddr: 0xC720, symBinAddr: 0x10000E034, symSize: 0x48 }
  - { offset: 0x1CFFE, size: 0x8, addend: 0x0, symName: __ZNSt3__112__to_addressB8ne180100INS_16reverse_iteratorIP9ParameterEEvEEu7__decayIDTclsr19__to_address_helperIT_EE6__callclsr3stdE7declvalIRKS5_EEEEES7_, symObjAddr: 0xC79C, symBinAddr: 0x10000E0B0, symSize: 0x24 }
  - { offset: 0x1D05D, size: 0x8, addend: 0x0, symName: __ZNSt3__119__allocator_destroyB8ne180100INS_9allocatorI9ParameterEENS_16reverse_iteratorINS4_IPS2_EEEES7_EEvRT_T0_T1_, symObjAddr: 0xCAE4, symBinAddr: 0x10000E3F8, symSize: 0x70 }
  - { offset: 0x1D0C2, size: 0x8, addend: 0x0, symName: __ZNSt3__1neB8ne180100INS_16reverse_iteratorIP9ParameterEES4_EEbRKNS1_IT_EERKNS1_IT0_EE, symObjAddr: 0xCB90, symBinAddr: 0x10000E4A4, symSize: 0x60 }
  - { offset: 0x1D10E, size: 0x8, addend: 0x0, symName: __ZNSt3__112__to_addressB8ne180100INS_16reverse_iteratorINS1_IP9ParameterEEEEvEEu7__decayIDTclsr19__to_address_helperIT_EE6__callclsr3stdE7declvalIRKS6_EEEEES8_, symObjAddr: 0xCC1C, symBinAddr: 0x10000E530, symSize: 0x24 }
  - { offset: 0x1D16D, size: 0x8, addend: 0x0, symName: __ZNSt3__1eqB8ne180100IPNS_12basic_stringIcNS_11char_traitsIcEENS_9allocatorIcEEEEEEbRKNS_11__wrap_iterIT_EESC_, symObjAddr: 0xD084, symBinAddr: 0x10000E998, symSize: 0x48 }
  - { offset: 0x1D1B0, size: 0x8, addend: 0x0, symName: __ZNSt3__112__to_addressB8ne180100I9PredicateEEPT_S3_, symObjAddr: 0xD5A8, symBinAddr: 0x10000EEBC, symSize: 0x14 }
  - { offset: 0x1D1E5, size: 0x8, addend: 0x0, symName: __ZNSt3__119__allocate_at_leastB8ne180100INS_9allocatorI9PredicateEEEENS_19__allocation_resultINS_16allocator_traitsIT_E7pointerEEERS6_m, symObjAddr: 0xDBEC, symBinAddr: 0x10000F500, symSize: 0x40 }
  - { offset: 0x1D228, size: 0x8, addend: 0x0, symName: __ZNSt3__142__uninitialized_allocator_move_if_noexceptB8ne180100INS_9allocatorI9PredicateEENS_16reverse_iteratorIPS2_EES6_S6_EET2_RT_T0_T1_S7_, symObjAddr: 0xDDB4, symBinAddr: 0x10000F6C8, symSize: 0x12C }
  - { offset: 0x1D2C8, size: 0x8, addend: 0x0, symName: __ZNSt3__14swapB8ne180100IP9PredicateEENS_9enable_ifIXaasr21is_move_constructibleIT_EE5valuesr18is_move_assignableIS4_EE5valueEvE4typeERS4_S7_, symObjAddr: 0xDF2C, symBinAddr: 0x10000F840, symSize: 0x3C }
  - { offset: 0x1D319, size: 0x8, addend: 0x0, symName: __ZNSt3__122__make_exception_guardB8ne180100INS_29_AllocatorDestroyRangeReverseINS_9allocatorI9PredicateEENS_16reverse_iteratorIPS3_EEEEEENS_28__exception_guard_exceptionsIT_EESA_, symObjAddr: 0xDF7C, symBinAddr: 0x10000F890, symSize: 0x4C }
  - { offset: 0x1D34F, size: 0x8, addend: 0x0, symName: __ZNSt3__1neB8ne180100IP9PredicateS2_EEbRKNS_16reverse_iteratorIT_EERKNS3_IT0_EE, symObjAddr: 0xE00C, symBinAddr: 0x10000F920, symSize: 0x48 }
  - { offset: 0x1D39B, size: 0x8, addend: 0x0, symName: __ZNSt3__112__to_addressB8ne180100INS_16reverse_iteratorIP9PredicateEEvEEu7__decayIDTclsr19__to_address_helperIT_EE6__callclsr3stdE7declvalIRKS5_EEEEES7_, symObjAddr: 0xE088, symBinAddr: 0x10000F99C, symSize: 0x24 }
  - { offset: 0x1D3FA, size: 0x8, addend: 0x0, symName: __ZNSt3__119__allocator_destroyB8ne180100INS_9allocatorI9PredicateEENS_16reverse_iteratorINS4_IPS2_EEEES7_EEvRT_T0_T1_, symObjAddr: 0xE574, symBinAddr: 0x10000FE88, symSize: 0x70 }
  - { offset: 0x1D45F, size: 0x8, addend: 0x0, symName: __ZNSt3__1neB8ne180100INS_16reverse_iteratorIP9PredicateEES4_EEbRKNS1_IT_EERKNS1_IT0_EE, symObjAddr: 0xE620, symBinAddr: 0x10000FF34, symSize: 0x60 }
  - { offset: 0x1D4AB, size: 0x8, addend: 0x0, symName: __ZNSt3__112__to_addressB8ne180100INS_16reverse_iteratorINS1_IP9PredicateEEEEvEEu7__decayIDTclsr19__to_address_helperIT_EE6__callclsr3stdE7declvalIRKS6_EEEEES8_, symObjAddr: 0xE6AC, symBinAddr: 0x10000FFC0, symSize: 0x24 }
  - { offset: 0x1D50A, size: 0x8, addend: 0x0, symName: __ZNSt3__122__make_exception_guardB8ne180100INS_6vectorI9ParameterNS_9allocatorIS2_EEE16__destroy_vectorEEENS_28__exception_guard_exceptionsIT_EES8_, symObjAddr: 0xECB4, symBinAddr: 0x1000105C8, symSize: 0x40 }
  - { offset: 0x1D53F, size: 0x8, addend: 0x0, symName: __ZNSt3__130__uninitialized_allocator_copyB8ne180100INS_9allocatorI9ParameterEEPS2_S4_S4_EET2_RT_T0_T1_S5_, symObjAddr: 0xEF28, symBinAddr: 0x10001083C, symSize: 0x80 }
  - { offset: 0x1D5DC, size: 0x8, addend: 0x0, symName: __ZNSt3__114__unwrap_rangeB8ne180100IP9ParameterS2_EENS_4pairIT0_S4_EET_S6_, symObjAddr: 0xEFA8, symBinAddr: 0x1000108BC, symSize: 0x60 }
  - { offset: 0x1D628, size: 0x8, addend: 0x0, symName: __ZNSt3__135__uninitialized_allocator_copy_implB8ne180100INS_9allocatorI9ParameterEEPS2_S4_S4_EET2_RT_T0_T1_S5_, symObjAddr: 0xF008, symBinAddr: 0x10001091C, symSize: 0xF4 }
  - { offset: 0x1D6C6, size: 0x8, addend: 0x0, symName: __ZNSt3__113__unwrap_iterB8ne180100IP9ParameterNS_18__unwrap_iter_implIS2_Lb1EEELi0EEEDTclsrT0_8__unwrapclsr3stdE7declvalIT_EEEES6_, symObjAddr: 0xF0FC, symBinAddr: 0x100010A10, symSize: 0x24 }
  - { offset: 0x1D70A, size: 0x8, addend: 0x0, symName: __ZNSt3__113__rewrap_iterB8ne180100IP9ParameterS2_NS_18__unwrap_iter_implIS2_Lb1EEEEET_S5_T0_, symObjAddr: 0xF120, symBinAddr: 0x100010A34, symSize: 0x3C }
  - { offset: 0x1D75F, size: 0x8, addend: 0x0, symName: __ZNSt3__19make_pairB8ne180100IP9ParameterS2_EENS_4pairINS_18__unwrap_ref_decayIT_E4typeENS4_IT0_E4typeEEEOS5_OS8_, symObjAddr: 0xF15C, symBinAddr: 0x100010A70, symSize: 0x38 }
  - { offset: 0x1D882, size: 0x8, addend: 0x0, symName: __ZNSt3__122__make_exception_guardB8ne180100INS_29_AllocatorDestroyRangeReverseINS_9allocatorI9ParameterEEPS3_EEEENS_28__exception_guard_exceptionsIT_EES8_, symObjAddr: 0xF204, symBinAddr: 0x100010B18, symSize: 0x4C }
  - { offset: 0x1D8B8, size: 0x8, addend: 0x0, symName: __ZNSt3__119__allocator_destroyB8ne180100INS_9allocatorI9ParameterEENS_16reverse_iteratorIPS2_EES6_EEvRT_T0_T1_, symObjAddr: 0xF494, symBinAddr: 0x100010DA8, symSize: 0x70 }
  - { offset: 0x1D96E, size: 0x8, addend: 0x0, symName: __ZNSt3__18distanceB8ne180100INS_11__wrap_iterIP9PredicateEEEENS_15iterator_traitsIT_E15difference_typeES6_S6_, symObjAddr: 0xFB90, symBinAddr: 0x1000114A4, symSize: 0x3C }
  - { offset: 0x1D9B1, size: 0x8, addend: 0x0, symName: __ZNSt3__1miB8ne180100IPK9PredicatePS1_EEDTmicldtfp_4baseEcldtfp0_4baseEERKNS_11__wrap_iterIT_EERKNS6_IT0_EE, symObjAddr: 0xFBCC, symBinAddr: 0x1000114E0, symSize: 0x48 }
  - { offset: 0x1D9FD, size: 0x8, addend: 0x0, symName: __ZNSt3__14nextB8ne180100INS_11__wrap_iterIP9PredicateEELi0EEET_S5_NS_15iterator_traitsIS5_E15difference_typeE, symObjAddr: 0xFC14, symBinAddr: 0x100011528, symSize: 0x3C }
  - { offset: 0x1DA46, size: 0x8, addend: 0x0, symName: __ZNSt3__14copyB8ne180100INS_11__wrap_iterIP9PredicateEES3_EET0_T_S6_S5_, symObjAddr: 0xFE60, symBinAddr: 0x100011774, symSize: 0x50 }
  - { offset: 0x1DAA0, size: 0x8, addend: 0x0, symName: __ZNSt3__19__advanceB8ne180100INS_11__wrap_iterIP9PredicateEEEEvRT_NS_15iterator_traitsIS5_E15difference_typeENS_26random_access_iterator_tagE, symObjAddr: 0x1012C, symBinAddr: 0x100011A40, symSize: 0x2C }
  - { offset: 0x1DAE9, size: 0x8, addend: 0x0, symName: __ZNSt3__130__uninitialized_allocator_copyB8ne180100INS_9allocatorI9PredicateEENS_11__wrap_iterIPS2_EES6_S5_EET2_RT_T0_T1_S7_, symObjAddr: 0x10188, symBinAddr: 0x100011A9C, symSize: 0x90 }
  - { offset: 0x1DB86, size: 0x8, addend: 0x0, symName: __ZNSt3__114__unwrap_rangeB8ne180100INS_11__wrap_iterIP9PredicateEES3_EENS_4pairIT0_S6_EET_S8_, symObjAddr: 0x10218, symBinAddr: 0x100011B2C, symSize: 0x70 }
  - { offset: 0x1DBD2, size: 0x8, addend: 0x0, symName: __ZNSt3__135__uninitialized_allocator_copy_implB8ne180100INS_9allocatorI9PredicateEEPS2_S4_S4_EET2_RT_T0_T1_S5_, symObjAddr: 0x10288, symBinAddr: 0x100011B9C, symSize: 0xF4 }
  - { offset: 0x1DC70, size: 0x8, addend: 0x0, symName: __ZNSt3__113__unwrap_iterB8ne180100IP9PredicateNS_18__unwrap_iter_implIS2_Lb1EEELi0EEEDTclsrT0_8__unwrapclsr3stdE7declvalIT_EEEES6_, symObjAddr: 0x1037C, symBinAddr: 0x100011C90, symSize: 0x24 }
  - { offset: 0x1DCB4, size: 0x8, addend: 0x0, symName: __ZNSt3__113__rewrap_iterB8ne180100IP9PredicateS2_NS_18__unwrap_iter_implIS2_Lb1EEEEET_S5_T0_, symObjAddr: 0x103A0, symBinAddr: 0x100011CB4, symSize: 0x3C }
  - { offset: 0x1DD09, size: 0x8, addend: 0x0, symName: __ZNSt3__19make_pairB8ne180100IP9PredicateS2_EENS_4pairINS_18__unwrap_ref_decayIT_E4typeENS4_IT0_E4typeEEEOS5_OS8_, symObjAddr: 0x103DC, symBinAddr: 0x100011CF0, symSize: 0x38 }
  - { offset: 0x1DD58, size: 0x8, addend: 0x0, symName: __ZNSt3__113__unwrap_iterB8ne180100INS_11__wrap_iterIP9PredicateEENS_18__unwrap_iter_implIS4_Lb1EEELi0EEEDTclsrT0_8__unwrapclsr3stdE7declvalIT_EEEES8_, symObjAddr: 0x10414, symBinAddr: 0x100011D28, symSize: 0x2C }
  - { offset: 0x1DEC3, size: 0x8, addend: 0x0, symName: __ZNSt3__112__to_addressB8ne180100INS_11__wrap_iterIP9PredicateEEvEEu7__decayIDTclsr19__to_address_helperIT_EE6__callclsr3stdE7declvalIRKS5_EEEEES7_, symObjAddr: 0x104D8, symBinAddr: 0x100011DEC, symSize: 0x24 }
  - { offset: 0x1DF9E, size: 0x8, addend: 0x0, symName: __ZNSt3__122__make_exception_guardB8ne180100INS_29_AllocatorDestroyRangeReverseINS_9allocatorI9PredicateEEPS3_EEEENS_28__exception_guard_exceptionsIT_EES8_, symObjAddr: 0x10558, symBinAddr: 0x100011E6C, symSize: 0x4C }
  - { offset: 0x1DFD4, size: 0x8, addend: 0x0, symName: __ZNSt3__119__allocator_destroyB8ne180100INS_9allocatorI9PredicateEENS_16reverse_iteratorIPS2_EES6_EEvRT_T0_T1_, symObjAddr: 0x107E8, symBinAddr: 0x1000120FC, symSize: 0x70 }
  - { offset: 0x1E08A, size: 0x8, addend: 0x0, symName: __ZNSt3__113move_backwardB8ne180100IP9PredicateS2_EET0_T_S4_S3_, symObjAddr: 0x108D4, symBinAddr: 0x1000121E8, symSize: 0x40 }
  - { offset: 0x1E0E4, size: 0x8, addend: 0x0, symName: __ZNSt3__115__move_backwardB8ne180100INS_17_ClassicAlgPolicyEP9PredicateS3_S3_EENS_4pairIT0_T2_EES5_T1_S6_, symObjAddr: 0x10914, symBinAddr: 0x100012228, symSize: 0x44 }
  - { offset: 0x1E150, size: 0x8, addend: 0x0, symName: __ZNSt3__123__dispatch_copy_or_moveB8ne180100INS_17_ClassicAlgPolicyENS_20__move_backward_loopIS1_EENS_23__move_backward_trivialEP9PredicateS6_S6_EENS_4pairIT2_T4_EES8_T3_S9_, symObjAddr: 0x10958, symBinAddr: 0x10001226C, symSize: 0x44 }
  - { offset: 0x1E1CE, size: 0x8, addend: 0x0, symName: __ZNSt3__121__unwrap_and_dispatchB8ne180100INS_10__overloadINS_20__move_backward_loopINS_17_ClassicAlgPolicyEEENS_23__move_backward_trivialEEEP9PredicateS8_S8_Li0EEENS_4pairIT0_T2_EESA_T1_SB_, symObjAddr: 0x1099C, symBinAddr: 0x1000122B0, symSize: 0xB4 }
  - { offset: 0x1E25C, size: 0x8, addend: 0x0, symName: __ZNSt3__114__unwrap_rangeB8ne180100IP9PredicateS2_EENS_4pairIT0_S4_EET_S6_, symObjAddr: 0x10A50, symBinAddr: 0x100012364, symSize: 0x60 }
  - { offset: 0x1E2A8, size: 0x8, addend: 0x0, symName: __ZNSt3__114__rewrap_rangeB8ne180100IP9PredicateS2_EET_S3_T0_, symObjAddr: 0x10B54, symBinAddr: 0x100012468, symSize: 0x2C }
  - { offset: 0x1E2FF, size: 0x8, addend: 0x0, symName: __ZNSt3__16__copyB8ne180100INS_17_ClassicAlgPolicyENS_11__wrap_iterIP9PredicateEES5_S4_EENS_4pairIT0_T2_EES7_T1_S8_, symObjAddr: 0x10E24, symBinAddr: 0x100012738, symSize: 0x54 }
  - { offset: 0x1E36B, size: 0x8, addend: 0x0, symName: __ZNSt3__123__dispatch_copy_or_moveB8ne180100INS_17_ClassicAlgPolicyENS_11__copy_loopIS1_EENS_14__copy_trivialENS_11__wrap_iterIP9PredicateEES8_S7_EENS_4pairIT2_T4_EESA_T3_SB_, symObjAddr: 0x10E78, symBinAddr: 0x10001278C, symSize: 0x54 }
  - { offset: 0x1E3E9, size: 0x8, addend: 0x0, symName: __ZNSt3__121__unwrap_and_dispatchB8ne180100INS_10__overloadINS_11__copy_loopINS_17_ClassicAlgPolicyEEENS_14__copy_trivialEEENS_11__wrap_iterIP9PredicateEESA_S9_Li0EEENS_4pairIT0_T2_EESC_T1_SD_, symObjAddr: 0x10ECC, symBinAddr: 0x1000127E0, symSize: 0xCC }
  - { offset: 0x1E477, size: 0x8, addend: 0x0, symName: __ZNSt3__19make_pairB8ne180100INS_11__wrap_iterIP9PredicateEES3_EENS_4pairINS_18__unwrap_ref_decayIT_E4typeENS6_IT0_E4typeEEEOS7_OSA_, symObjAddr: 0x11020, symBinAddr: 0x100012934, symSize: 0x38 }
  - { offset: 0x1E4C6, size: 0x8, addend: 0x0, symName: __ZNSt3__114__rewrap_rangeB8ne180100INS_11__wrap_iterIP9PredicateEES3_EET_S5_T0_, symObjAddr: 0x11058, symBinAddr: 0x10001296C, symSize: 0x3C }
  - { offset: 0x1E512, size: 0x8, addend: 0x0, symName: __ZNSt3__18distanceB8ne180100IP9ParameterEENS_15iterator_traitsIT_E15difference_typeES4_S4_, symObjAddr: 0x11344, symBinAddr: 0x100012C58, symSize: 0x2C }
  - { offset: 0x1E555, size: 0x8, addend: 0x0, symName: __ZNSt3__14nextB8ne180100IP9ParameterLi0EEET_S3_NS_15iterator_traitsIS3_E15difference_typeE, symObjAddr: 0x11370, symBinAddr: 0x100012C84, symSize: 0x34 }
  - { offset: 0x1E59E, size: 0x8, addend: 0x0, symName: __ZNSt3__14copyB8ne180100IP9ParameterS2_EET0_T_S4_S3_, symObjAddr: 0x113A4, symBinAddr: 0x100012CB8, symSize: 0x40 }
  - { offset: 0x1E5F8, size: 0x8, addend: 0x0, symName: __ZNSt3__16__copyB8ne180100INS_17_ClassicAlgPolicyEP9ParameterS3_S3_EENS_4pairIT0_T2_EES5_T1_S6_, symObjAddr: 0x113E4, symBinAddr: 0x100012CF8, symSize: 0x44 }
  - { offset: 0x1E664, size: 0x8, addend: 0x0, symName: __ZNSt3__19__advanceB8ne180100IP9ParameterEEvRT_NS_15iterator_traitsIS3_E15difference_typeENS_26random_access_iterator_tagE, symObjAddr: 0x114AC, symBinAddr: 0x100012DC0, symSize: 0x30 }
  - { offset: 0x1E6AD, size: 0x8, addend: 0x0, symName: __ZNSt3__123__dispatch_copy_or_moveB8ne180100INS_17_ClassicAlgPolicyENS_11__copy_loopIS1_EENS_14__copy_trivialEP9ParameterS6_S6_EENS_4pairIT2_T4_EES8_T3_S9_, symObjAddr: 0x114DC, symBinAddr: 0x100012DF0, symSize: 0x44 }
  - { offset: 0x1E72B, size: 0x8, addend: 0x0, symName: __ZNSt3__121__unwrap_and_dispatchB8ne180100INS_10__overloadINS_11__copy_loopINS_17_ClassicAlgPolicyEEENS_14__copy_trivialEEEP9ParameterS8_S8_Li0EEENS_4pairIT0_T2_EESA_T1_SB_, symObjAddr: 0x11520, symBinAddr: 0x100012E34, symSize: 0xB4 }
  - { offset: 0x1E7B9, size: 0x8, addend: 0x0, symName: __ZNSt3__114__rewrap_rangeB8ne180100IP9ParameterS2_EET_S3_T0_, symObjAddr: 0x1165C, symBinAddr: 0x100012F70, symSize: 0x2C }
  - { offset: 0x1E805, size: 0x8, addend: 0x0, symName: __ZNSt3__110__distanceB8ne180100IP9ParameterEENS_15iterator_traitsIT_E15difference_typeES4_S4_NS_26random_access_iterator_tagE, symObjAddr: 0x116BC, symBinAddr: 0x100012FD0, symSize: 0x28 }
  - { offset: 0x1E926, size: 0x8, addend: 0x0, symName: __ZNSt3__113__rewrap_iterB8ne180100INS_11__wrap_iterIP9PredicateEES3_NS_18__unwrap_iter_implIS4_Lb1EEEEET_S7_T0_, symObjAddr: 0x11754, symBinAddr: 0x100013068, symSize: 0x4C }
  - { offset: 0x1E97B, size: 0x8, addend: 0x0, symName: __ZNSt3__142__uninitialized_allocator_move_if_noexceptB8ne180100INS_9allocatorI9PredicateEEPS2_S4_S4_EET2_RT_T0_T1_S5_, symObjAddr: 0x1190C, symBinAddr: 0x100013220, symSize: 0xF4 }
  - { offset: 0x1EA19, size: 0x8, addend: 0x0, symName: __ZNSt3__110__distanceB8ne180100INS_11__wrap_iterIP9PredicateEEEENS_15iterator_traitsIT_E15difference_typeES6_S6_NS_26random_access_iterator_tagE, symObjAddr: 0x11A54, symBinAddr: 0x100013368, symSize: 0x30 }
  - { offset: 0x1EA66, size: 0x8, addend: 0x0, symName: __ZNSt3__1miB8ne180100IP9PredicateS2_EEDTmicldtfp_4baseEcldtfp0_4baseEERKNS_11__wrap_iterIT_EERKNS4_IT0_EE, symObjAddr: 0x11A84, symBinAddr: 0x100013398, symSize: 0x48 }
  - { offset: 0x1EAB2, size: 0x8, addend: 0x0, symName: __ZNSt3__1eqB8ne180100IP9PredicateEEbRKNS_11__wrap_iterIT_EES7_, symObjAddr: 0x11B08, symBinAddr: 0x10001341C, symSize: 0x48 }
  - { offset: 0x1EAF5, size: 0x8, addend: 0x0, symName: __ZNSt3__1neB8ne180100IP9ParameterEEbRKNS_11__wrap_iterIT_EES7_, symObjAddr: 0x12128, symBinAddr: 0x100013A3C, symSize: 0x34 }
  - { offset: 0x1EB38, size: 0x8, addend: 0x0, symName: __ZNSt3__1eqB8ne180100IP9ParameterEEbRKNS_11__wrap_iterIT_EES7_, symObjAddr: 0x1229C, symBinAddr: 0x100013BB0, symSize: 0x48 }
  - { offset: 0x1EB7B, size: 0x8, addend: 0x0, symName: __ZNSt3__1ltB8ne180100IcNS_11char_traitsIcEENS_9allocatorIcEEEEbRKNS_12basic_stringIT_T0_T1_EESB_, symObjAddr: 0x12A30, symBinAddr: 0x100014344, symSize: 0x38 }
  - { offset: 0x1EBD3, size: 0x8, addend: 0x0, symName: __ZNSt3__112__to_addressB8ne180100IKcEEPT_S3_, symObjAddr: 0x12CBC, symBinAddr: 0x1000145D0, symSize: 0x14 }
  - { offset: 0x1EC59, size: 0x8, addend: 0x0, symName: __ZNSt3__127__tree_balance_after_insertB8ne180100IPNS_16__tree_node_baseIPvEEEEvT_S5_, symObjAddr: 0x13224, symBinAddr: 0x100014B38, symSize: 0x32C }
  - { offset: 0x1ECD5, size: 0x8, addend: 0x0, symName: __ZNSt3__120__tree_is_left_childB8ne180100IPNS_16__tree_node_baseIPvEEEEbT_, symObjAddr: 0x13590, symBinAddr: 0x100014EA4, symSize: 0x2C }
  - { offset: 0x1ED0A, size: 0x8, addend: 0x0, symName: __ZNSt3__118__tree_left_rotateB8ne180100IPNS_16__tree_node_baseIPvEEEEvT_, symObjAddr: 0x135BC, symBinAddr: 0x100014ED0, symSize: 0xD8 }
  - { offset: 0x1ED49, size: 0x8, addend: 0x0, symName: __ZNSt3__119__tree_right_rotateB8ne180100IPNS_16__tree_node_baseIPvEEEEvT_, symObjAddr: 0x13694, symBinAddr: 0x100014FA8, symSize: 0xCC }
  - { offset: 0x1ED8B, size: 0x8, addend: 0x0, symName: __ZNSt3__112__destroy_atB8ne180100INS_12basic_stringIcNS_11char_traitsIcEENS_9allocatorIcEEEELi0EEEvPT_, symObjAddr: 0x13984, symBinAddr: 0x100015298, symSize: 0x24 }
  - { offset: 0x1EDC2, size: 0x8, addend: 0x0, symName: __ZNSt3__18distanceB8ne180100INS_11__wrap_iterIP9ParameterEEEENS_15iterator_traitsIT_E15difference_typeES6_S6_, symObjAddr: 0x150F0, symBinAddr: 0x100016A04, symSize: 0x3C }
  - { offset: 0x1EE05, size: 0x8, addend: 0x0, symName: __ZNSt3__1miB8ne180100IPK9ParameterPS1_EEDTmicldtfp_4baseEcldtfp0_4baseEERKNS_11__wrap_iterIT_EERKNS6_IT0_EE, symObjAddr: 0x1512C, symBinAddr: 0x100016A40, symSize: 0x48 }
  - { offset: 0x1EE51, size: 0x8, addend: 0x0, symName: __ZNSt3__14nextB8ne180100INS_11__wrap_iterIP9ParameterEELi0EEET_S5_NS_15iterator_traitsIS5_E15difference_typeE, symObjAddr: 0x15174, symBinAddr: 0x100016A88, symSize: 0x3C }
  - { offset: 0x1EE9A, size: 0x8, addend: 0x0, symName: __ZNSt3__14copyB8ne180100INS_11__wrap_iterIP9ParameterEES3_EET0_T_S6_S5_, symObjAddr: 0x153C0, symBinAddr: 0x100016CD4, symSize: 0x50 }
  - { offset: 0x1EEF4, size: 0x8, addend: 0x0, symName: __ZNSt3__19__advanceB8ne180100INS_11__wrap_iterIP9ParameterEEEEvRT_NS_15iterator_traitsIS5_E15difference_typeENS_26random_access_iterator_tagE, symObjAddr: 0x15644, symBinAddr: 0x100016F58, symSize: 0x2C }
  - { offset: 0x1EF3D, size: 0x8, addend: 0x0, symName: __ZNSt3__130__uninitialized_allocator_copyB8ne180100INS_9allocatorI9ParameterEENS_11__wrap_iterIPS2_EES6_S5_EET2_RT_T0_T1_S7_, symObjAddr: 0x156A0, symBinAddr: 0x100016FB4, symSize: 0x90 }
  - { offset: 0x1EFDA, size: 0x8, addend: 0x0, symName: __ZNSt3__114__unwrap_rangeB8ne180100INS_11__wrap_iterIP9ParameterEES3_EENS_4pairIT0_S6_EET_S8_, symObjAddr: 0x15730, symBinAddr: 0x100017044, symSize: 0x70 }
  - { offset: 0x1F026, size: 0x8, addend: 0x0, symName: __ZNSt3__113__unwrap_iterB8ne180100INS_11__wrap_iterIP9ParameterEENS_18__unwrap_iter_implIS4_Lb1EEELi0EEEDTclsrT0_8__unwrapclsr3stdE7declvalIT_EEEES8_, symObjAddr: 0x157A0, symBinAddr: 0x1000170B4, symSize: 0x2C }
  - { offset: 0x1F0BD, size: 0x8, addend: 0x0, symName: __ZNSt3__112__to_addressB8ne180100INS_11__wrap_iterIP9ParameterEEvEEu7__decayIDTclsr19__to_address_helperIT_EE6__callclsr3stdE7declvalIRKS5_EEEEES7_, symObjAddr: 0x157F4, symBinAddr: 0x100017108, symSize: 0x24 }
  - { offset: 0x1F198, size: 0x8, addend: 0x0, symName: __ZNSt3__113move_backwardB8ne180100IP9ParameterS2_EET0_T_S4_S3_, symObjAddr: 0x15874, symBinAddr: 0x100017188, symSize: 0x40 }
  - { offset: 0x1F1F2, size: 0x8, addend: 0x0, symName: __ZNSt3__115__move_backwardB8ne180100INS_17_ClassicAlgPolicyEP9ParameterS3_S3_EENS_4pairIT0_T2_EES5_T1_S6_, symObjAddr: 0x158B4, symBinAddr: 0x1000171C8, symSize: 0x44 }
  - { offset: 0x1F25E, size: 0x8, addend: 0x0, symName: __ZNSt3__123__dispatch_copy_or_moveB8ne180100INS_17_ClassicAlgPolicyENS_20__move_backward_loopIS1_EENS_23__move_backward_trivialEP9ParameterS6_S6_EENS_4pairIT2_T4_EES8_T3_S9_, symObjAddr: 0x158F8, symBinAddr: 0x10001720C, symSize: 0x44 }
  - { offset: 0x1F2DC, size: 0x8, addend: 0x0, symName: __ZNSt3__121__unwrap_and_dispatchB8ne180100INS_10__overloadINS_20__move_backward_loopINS_17_ClassicAlgPolicyEEENS_23__move_backward_trivialEEEP9ParameterS8_S8_Li0EEENS_4pairIT0_T2_EESA_T1_SB_, symObjAddr: 0x1593C, symBinAddr: 0x100017250, symSize: 0xB4 }
  - { offset: 0x1F375, size: 0x8, addend: 0x0, symName: __ZNSt3__16__copyB8ne180100INS_17_ClassicAlgPolicyENS_11__wrap_iterIP9ParameterEES5_S4_EENS_4pairIT0_T2_EES7_T1_S8_, symObjAddr: 0x15B0C, symBinAddr: 0x100017420, symSize: 0x54 }
  - { offset: 0x1F3E1, size: 0x8, addend: 0x0, symName: __ZNSt3__123__dispatch_copy_or_moveB8ne180100INS_17_ClassicAlgPolicyENS_11__copy_loopIS1_EENS_14__copy_trivialENS_11__wrap_iterIP9ParameterEES8_S7_EENS_4pairIT2_T4_EESA_T3_SB_, symObjAddr: 0x15B60, symBinAddr: 0x100017474, symSize: 0x54 }
  - { offset: 0x1F45F, size: 0x8, addend: 0x0, symName: __ZNSt3__121__unwrap_and_dispatchB8ne180100INS_10__overloadINS_11__copy_loopINS_17_ClassicAlgPolicyEEENS_14__copy_trivialEEENS_11__wrap_iterIP9ParameterEESA_S9_Li0EEENS_4pairIT0_T2_EESC_T1_SD_, symObjAddr: 0x15BB4, symBinAddr: 0x1000174C8, symSize: 0xCC }
  - { offset: 0x1F4ED, size: 0x8, addend: 0x0, symName: __ZNSt3__19make_pairB8ne180100INS_11__wrap_iterIP9ParameterEES3_EENS_4pairINS_18__unwrap_ref_decayIT_E4typeENS6_IT0_E4typeEEEOS7_OSA_, symObjAddr: 0x15C80, symBinAddr: 0x100017594, symSize: 0x38 }
  - { offset: 0x1F53C, size: 0x8, addend: 0x0, symName: __ZNSt3__114__rewrap_rangeB8ne180100INS_11__wrap_iterIP9ParameterEES3_EET_S5_T0_, symObjAddr: 0x15CB8, symBinAddr: 0x1000175CC, symSize: 0x3C }
  - { offset: 0x1F65C, size: 0x8, addend: 0x0, symName: __ZNSt3__113__rewrap_iterB8ne180100INS_11__wrap_iterIP9ParameterEES3_NS_18__unwrap_iter_implIS4_Lb1EEEEET_S7_T0_, symObjAddr: 0x15D64, symBinAddr: 0x100017678, symSize: 0x4C }
  - { offset: 0x1F6B1, size: 0x8, addend: 0x0, symName: __ZNSt3__142__uninitialized_allocator_move_if_noexceptB8ne180100INS_9allocatorI9ParameterEEPS2_S4_S4_EET2_RT_T0_T1_S5_, symObjAddr: 0x15F1C, symBinAddr: 0x100017830, symSize: 0xF4 }
  - { offset: 0x1F74F, size: 0x8, addend: 0x0, symName: __ZNSt3__110__distanceB8ne180100INS_11__wrap_iterIP9ParameterEEEENS_15iterator_traitsIT_E15difference_typeES6_S6_NS_26random_access_iterator_tagE, symObjAddr: 0x16010, symBinAddr: 0x100017924, symSize: 0x30 }
  - { offset: 0x1F79C, size: 0x8, addend: 0x0, symName: __ZNSt3__1miB8ne180100IP9ParameterS2_EEDTmicldtfp_4baseEcldtfp0_4baseEERKNS_11__wrap_iterIT_EERKNS4_IT0_EE, symObjAddr: 0x16040, symBinAddr: 0x100017954, symSize: 0x48 }
  - { offset: 0x1F7E8, size: 0x8, addend: 0x0, symName: __ZNSt3__112__to_addressB8ne180100I4RuleEEPT_S3_, symObjAddr: 0x16374, symBinAddr: 0x100017C88, symSize: 0x14 }
  - { offset: 0x1F81D, size: 0x8, addend: 0x0, symName: __ZNSt3__119__allocate_at_leastB8ne180100INS_9allocatorI4RuleEEEENS_19__allocation_resultINS_16allocator_traitsIT_E7pointerEEERS6_m, symObjAddr: 0x169C0, symBinAddr: 0x1000182D4, symSize: 0x40 }
  - { offset: 0x1F860, size: 0x8, addend: 0x0, symName: __ZNSt3__142__uninitialized_allocator_move_if_noexceptB8ne180100INS_9allocatorI4RuleEENS_16reverse_iteratorIPS2_EES6_S6_EET2_RT_T0_T1_S7_, symObjAddr: 0x16B88, symBinAddr: 0x10001849C, symSize: 0x12C }
  - { offset: 0x1F900, size: 0x8, addend: 0x0, symName: __ZNSt3__14swapB8ne180100IP4RuleEENS_9enable_ifIXaasr21is_move_constructibleIT_EE5valuesr18is_move_assignableIS4_EE5valueEvE4typeERS4_S7_, symObjAddr: 0x16D00, symBinAddr: 0x100018614, symSize: 0x3C }
  - { offset: 0x1F951, size: 0x8, addend: 0x0, symName: __ZNSt3__122__make_exception_guardB8ne180100INS_29_AllocatorDestroyRangeReverseINS_9allocatorI4RuleEENS_16reverse_iteratorIPS3_EEEEEENS_28__exception_guard_exceptionsIT_EESA_, symObjAddr: 0x16D50, symBinAddr: 0x100018664, symSize: 0x4C }
  - { offset: 0x1F987, size: 0x8, addend: 0x0, symName: __ZNSt3__1neB8ne180100IP4RuleS2_EEbRKNS_16reverse_iteratorIT_EERKNS3_IT0_EE, symObjAddr: 0x16DE0, symBinAddr: 0x1000186F4, symSize: 0x48 }
  - { offset: 0x1F9D3, size: 0x8, addend: 0x0, symName: __ZNSt3__112__to_addressB8ne180100INS_16reverse_iteratorIP4RuleEEvEEu7__decayIDTclsr19__to_address_helperIT_EE6__callclsr3stdE7declvalIRKS5_EEEEES7_, symObjAddr: 0x16E5C, symBinAddr: 0x100018770, symSize: 0x24 }
  - { offset: 0x1FA32, size: 0x8, addend: 0x0, symName: __ZNSt3__119__allocator_destroyB8ne180100INS_9allocatorI4RuleEENS_16reverse_iteratorINS4_IPS2_EEEES7_EEvRT_T0_T1_, symObjAddr: 0x17348, symBinAddr: 0x100018C5C, symSize: 0x70 }
  - { offset: 0x1FA97, size: 0x8, addend: 0x0, symName: __ZNSt3__1neB8ne180100INS_16reverse_iteratorIP4RuleEES4_EEbRKNS1_IT_EERKNS1_IT0_EE, symObjAddr: 0x173F4, symBinAddr: 0x100018D08, symSize: 0x60 }
  - { offset: 0x1FAE3, size: 0x8, addend: 0x0, symName: __ZNSt3__112__to_addressB8ne180100INS_16reverse_iteratorINS1_IP4RuleEEEEvEEu7__decayIDTclsr19__to_address_helperIT_EE6__callclsr3stdE7declvalIRKS6_EEEEES8_, symObjAddr: 0x17480, symBinAddr: 0x100018D94, symSize: 0x24 }
  - { offset: 0x1FB42, size: 0x8, addend: 0x0, symName: __ZNSt3__18distanceB8ne180100INS_11__wrap_iterIP4RuleEEEENS_15iterator_traitsIT_E15difference_typeES6_S6_, symObjAddr: 0x17BA8, symBinAddr: 0x1000194BC, symSize: 0x3C }
  - { offset: 0x1FB85, size: 0x8, addend: 0x0, symName: __ZNSt3__1miB8ne180100IPK4RulePS1_EEDTmicldtfp_4baseEcldtfp0_4baseEERKNS_11__wrap_iterIT_EERKNS6_IT0_EE, symObjAddr: 0x17BE4, symBinAddr: 0x1000194F8, symSize: 0x48 }
  - { offset: 0x1FBD1, size: 0x8, addend: 0x0, symName: __ZNSt3__14nextB8ne180100INS_11__wrap_iterIP4RuleEELi0EEET_S5_NS_15iterator_traitsIS5_E15difference_typeE, symObjAddr: 0x17C2C, symBinAddr: 0x100019540, symSize: 0x3C }
  - { offset: 0x1FC1A, size: 0x8, addend: 0x0, symName: __ZNSt3__14copyB8ne180100INS_11__wrap_iterIP4RuleEES3_EET0_T_S6_S5_, symObjAddr: 0x17E78, symBinAddr: 0x10001978C, symSize: 0x50 }
  - { offset: 0x1FC74, size: 0x8, addend: 0x0, symName: __ZNSt3__19__advanceB8ne180100INS_11__wrap_iterIP4RuleEEEEvRT_NS_15iterator_traitsIS5_E15difference_typeENS_26random_access_iterator_tagE, symObjAddr: 0x18144, symBinAddr: 0x100019A58, symSize: 0x2C }
  - { offset: 0x1FCBD, size: 0x8, addend: 0x0, symName: __ZNSt3__130__uninitialized_allocator_copyB8ne180100INS_9allocatorI4RuleEENS_11__wrap_iterIPS2_EES6_S5_EET2_RT_T0_T1_S7_, symObjAddr: 0x181A0, symBinAddr: 0x100019AB4, symSize: 0x90 }
  - { offset: 0x1FD5A, size: 0x8, addend: 0x0, symName: __ZNSt3__114__unwrap_rangeB8ne180100INS_11__wrap_iterIP4RuleEES3_EENS_4pairIT0_S6_EET_S8_, symObjAddr: 0x18230, symBinAddr: 0x100019B44, symSize: 0x70 }
  - { offset: 0x1FDA6, size: 0x8, addend: 0x0, symName: __ZNSt3__135__uninitialized_allocator_copy_implB8ne180100INS_9allocatorI4RuleEEPS2_S4_S4_EET2_RT_T0_T1_S5_, symObjAddr: 0x182A0, symBinAddr: 0x100019BB4, symSize: 0xF4 }
  - { offset: 0x1FE44, size: 0x8, addend: 0x0, symName: __ZNSt3__113__unwrap_iterB8ne180100IP4RuleNS_18__unwrap_iter_implIS2_Lb1EEELi0EEEDTclsrT0_8__unwrapclsr3stdE7declvalIT_EEEES6_, symObjAddr: 0x18394, symBinAddr: 0x100019CA8, symSize: 0x24 }
  - { offset: 0x1FE88, size: 0x8, addend: 0x0, symName: __ZNSt3__113__rewrap_iterB8ne180100IP4RuleS2_NS_18__unwrap_iter_implIS2_Lb1EEEEET_S5_T0_, symObjAddr: 0x183B8, symBinAddr: 0x100019CCC, symSize: 0x3C }
  - { offset: 0x1FEDD, size: 0x8, addend: 0x0, symName: __ZNSt3__19make_pairB8ne180100IP4RuleS2_EENS_4pairINS_18__unwrap_ref_decayIT_E4typeENS4_IT0_E4typeEEEOS5_OS8_, symObjAddr: 0x183F4, symBinAddr: 0x100019D08, symSize: 0x38 }
  - { offset: 0x1FF2C, size: 0x8, addend: 0x0, symName: __ZNSt3__113__unwrap_iterB8ne180100INS_11__wrap_iterIP4RuleEENS_18__unwrap_iter_implIS4_Lb1EEELi0EEEDTclsrT0_8__unwrapclsr3stdE7declvalIT_EEEES8_, symObjAddr: 0x1842C, symBinAddr: 0x100019D40, symSize: 0x2C }
  - { offset: 0x20097, size: 0x8, addend: 0x0, symName: __ZNSt3__112__to_addressB8ne180100INS_11__wrap_iterIP4RuleEEvEEu7__decayIDTclsr19__to_address_helperIT_EE6__callclsr3stdE7declvalIRKS5_EEEEES7_, symObjAddr: 0x184F0, symBinAddr: 0x100019E04, symSize: 0x24 }
  - { offset: 0x20172, size: 0x8, addend: 0x0, symName: __ZNSt3__122__make_exception_guardB8ne180100INS_29_AllocatorDestroyRangeReverseINS_9allocatorI4RuleEEPS3_EEEENS_28__exception_guard_exceptionsIT_EES8_, symObjAddr: 0x18570, symBinAddr: 0x100019E84, symSize: 0x4C }
  - { offset: 0x201A8, size: 0x8, addend: 0x0, symName: __ZNSt3__119__allocator_destroyB8ne180100INS_9allocatorI4RuleEENS_16reverse_iteratorIPS2_EES6_EEvRT_T0_T1_, symObjAddr: 0x18800, symBinAddr: 0x10001A114, symSize: 0x70 }
  - { offset: 0x2025E, size: 0x8, addend: 0x0, symName: __ZNSt3__113move_backwardB8ne180100IP4RuleS2_EET0_T_S4_S3_, symObjAddr: 0x188EC, symBinAddr: 0x10001A200, symSize: 0x40 }
  - { offset: 0x202B8, size: 0x8, addend: 0x0, symName: __ZNSt3__115__move_backwardB8ne180100INS_17_ClassicAlgPolicyEP4RuleS3_S3_EENS_4pairIT0_T2_EES5_T1_S6_, symObjAddr: 0x1892C, symBinAddr: 0x10001A240, symSize: 0x44 }
  - { offset: 0x20324, size: 0x8, addend: 0x0, symName: __ZNSt3__123__dispatch_copy_or_moveB8ne180100INS_17_ClassicAlgPolicyENS_20__move_backward_loopIS1_EENS_23__move_backward_trivialEP4RuleS6_S6_EENS_4pairIT2_T4_EES8_T3_S9_, symObjAddr: 0x18970, symBinAddr: 0x10001A284, symSize: 0x44 }
  - { offset: 0x203A2, size: 0x8, addend: 0x0, symName: __ZNSt3__121__unwrap_and_dispatchB8ne180100INS_10__overloadINS_20__move_backward_loopINS_17_ClassicAlgPolicyEEENS_23__move_backward_trivialEEEP4RuleS8_S8_Li0EEENS_4pairIT0_T2_EESA_T1_SB_, symObjAddr: 0x189B4, symBinAddr: 0x10001A2C8, symSize: 0xB4 }
  - { offset: 0x20430, size: 0x8, addend: 0x0, symName: __ZNSt3__114__unwrap_rangeB8ne180100IP4RuleS2_EENS_4pairIT0_S4_EET_S6_, symObjAddr: 0x18A68, symBinAddr: 0x10001A37C, symSize: 0x60 }
  - { offset: 0x2047C, size: 0x8, addend: 0x0, symName: __ZNSt3__114__rewrap_rangeB8ne180100IP4RuleS2_EET_S3_T0_, symObjAddr: 0x18B6C, symBinAddr: 0x10001A480, symSize: 0x2C }
  - { offset: 0x204D3, size: 0x8, addend: 0x0, symName: __ZNSt3__16__copyB8ne180100INS_17_ClassicAlgPolicyENS_11__wrap_iterIP4RuleEES5_S4_EENS_4pairIT0_T2_EES7_T1_S8_, symObjAddr: 0x18EF0, symBinAddr: 0x10001A804, symSize: 0x54 }
  - { offset: 0x2053F, size: 0x8, addend: 0x0, symName: __ZNSt3__123__dispatch_copy_or_moveB8ne180100INS_17_ClassicAlgPolicyENS_11__copy_loopIS1_EENS_14__copy_trivialENS_11__wrap_iterIP4RuleEES8_S7_EENS_4pairIT2_T4_EESA_T3_SB_, symObjAddr: 0x18F44, symBinAddr: 0x10001A858, symSize: 0x54 }
  - { offset: 0x205BD, size: 0x8, addend: 0x0, symName: __ZNSt3__121__unwrap_and_dispatchB8ne180100INS_10__overloadINS_11__copy_loopINS_17_ClassicAlgPolicyEEENS_14__copy_trivialEEENS_11__wrap_iterIP4RuleEESA_S9_Li0EEENS_4pairIT0_T2_EESC_T1_SD_, symObjAddr: 0x18F98, symBinAddr: 0x10001A8AC, symSize: 0xCC }
  - { offset: 0x2064B, size: 0x8, addend: 0x0, symName: __ZNSt3__19make_pairB8ne180100INS_11__wrap_iterIP4RuleEES3_EENS_4pairINS_18__unwrap_ref_decayIT_E4typeENS6_IT0_E4typeEEEOS7_OSA_, symObjAddr: 0x190EC, symBinAddr: 0x10001AA00, symSize: 0x38 }
  - { offset: 0x2069A, size: 0x8, addend: 0x0, symName: __ZNSt3__114__rewrap_rangeB8ne180100INS_11__wrap_iterIP4RuleEES3_EET_S5_T0_, symObjAddr: 0x19124, symBinAddr: 0x10001AA38, symSize: 0x3C }
  - { offset: 0x206E6, size: 0x8, addend: 0x0, symName: __ZNSt3__18distanceB8ne180100IP9PredicateEENS_15iterator_traitsIT_E15difference_typeES4_S4_, symObjAddr: 0x19410, symBinAddr: 0x10001AD24, symSize: 0x2C }
  - { offset: 0x20729, size: 0x8, addend: 0x0, symName: __ZNSt3__14nextB8ne180100IP9PredicateLi0EEET_S3_NS_15iterator_traitsIS3_E15difference_typeE, symObjAddr: 0x1943C, symBinAddr: 0x10001AD50, symSize: 0x34 }
  - { offset: 0x20772, size: 0x8, addend: 0x0, symName: __ZNSt3__14copyB8ne180100IP9PredicateS2_EET0_T_S4_S3_, symObjAddr: 0x19470, symBinAddr: 0x10001AD84, symSize: 0x40 }
  - { offset: 0x207CC, size: 0x8, addend: 0x0, symName: __ZNSt3__16__copyB8ne180100INS_17_ClassicAlgPolicyEP9PredicateS3_S3_EENS_4pairIT0_T2_EES5_T1_S6_, symObjAddr: 0x1953C, symBinAddr: 0x10001AE50, symSize: 0x44 }
  - { offset: 0x20838, size: 0x8, addend: 0x0, symName: __ZNSt3__19__advanceB8ne180100IP9PredicateEEvRT_NS_15iterator_traitsIS3_E15difference_typeENS_26random_access_iterator_tagE, symObjAddr: 0x196B8, symBinAddr: 0x10001AFCC, symSize: 0x30 }
  - { offset: 0x20881, size: 0x8, addend: 0x0, symName: __ZNSt3__130__uninitialized_allocator_copyB8ne180100INS_9allocatorI9PredicateEEPS2_S4_S4_EET2_RT_T0_T1_S5_, symObjAddr: 0x196E8, symBinAddr: 0x10001AFFC, symSize: 0x80 }
  - { offset: 0x2091E, size: 0x8, addend: 0x0, symName: __ZNSt3__123__dispatch_copy_or_moveB8ne180100INS_17_ClassicAlgPolicyENS_11__copy_loopIS1_EENS_14__copy_trivialEP9PredicateS6_S6_EENS_4pairIT2_T4_EES8_T3_S9_, symObjAddr: 0x19768, symBinAddr: 0x10001B07C, symSize: 0x44 }
  - { offset: 0x2099C, size: 0x8, addend: 0x0, symName: __ZNSt3__121__unwrap_and_dispatchB8ne180100INS_10__overloadINS_11__copy_loopINS_17_ClassicAlgPolicyEEENS_14__copy_trivialEEEP9PredicateS8_S8_Li0EEENS_4pairIT0_T2_EESA_T1_SB_, symObjAddr: 0x197AC, symBinAddr: 0x10001B0C0, symSize: 0xB4 }
  - { offset: 0x20A2A, size: 0x8, addend: 0x0, symName: __ZNSt3__110__distanceB8ne180100IP9PredicateEENS_15iterator_traitsIT_E15difference_typeES4_S4_NS_26random_access_iterator_tagE, symObjAddr: 0x19860, symBinAddr: 0x10001B174, symSize: 0x28 }
  - { offset: 0x20B4B, size: 0x8, addend: 0x0, symName: __ZNSt3__113__rewrap_iterB8ne180100INS_11__wrap_iterIP4RuleEES3_NS_18__unwrap_iter_implIS4_Lb1EEEEET_S7_T0_, symObjAddr: 0x198F8, symBinAddr: 0x10001B20C, symSize: 0x4C }
  - { offset: 0x20BA0, size: 0x8, addend: 0x0, symName: __ZNSt3__142__uninitialized_allocator_move_if_noexceptB8ne180100INS_9allocatorI4RuleEEPS2_S4_S4_EET2_RT_T0_T1_S5_, symObjAddr: 0x19AB0, symBinAddr: 0x10001B3C4, symSize: 0xF4 }
  - { offset: 0x20C3E, size: 0x8, addend: 0x0, symName: __ZNSt3__110__distanceB8ne180100INS_11__wrap_iterIP4RuleEEEENS_15iterator_traitsIT_E15difference_typeES6_S6_NS_26random_access_iterator_tagE, symObjAddr: 0x19BF8, symBinAddr: 0x10001B50C, symSize: 0x30 }
  - { offset: 0x20C8B, size: 0x8, addend: 0x0, symName: __ZNSt3__1miB8ne180100IP4RuleS2_EEDTmicldtfp_4baseEcldtfp0_4baseEERKNS_11__wrap_iterIT_EERKNS4_IT0_EE, symObjAddr: 0x19C28, symBinAddr: 0x10001B53C, symSize: 0x48 }
  - { offset: 0x20CD7, size: 0x8, addend: 0x0, symName: __ZNSt3__1eqB8ne180100IP4RuleEEbRKNS_11__wrap_iterIT_EES7_, symObjAddr: 0x19CAC, symBinAddr: 0x10001B5C0, symSize: 0x48 }
  - { offset: 0x20D1A, size: 0x8, addend: 0x0, symName: __ZNSt3__122__make_exception_guardB8ne180100INS_6vectorI9PredicateNS_9allocatorIS2_EEE16__destroy_vectorEEENS_28__exception_guard_exceptionsIT_EES8_, symObjAddr: 0x19EF4, symBinAddr: 0x10001B808, symSize: 0x40 }
  - { offset: 0x21178, size: 0x8, addend: 0x0, symName: __ZNSt3__1neB8ne180100ERKNS_21__tree_const_iteratorINS_12basic_stringIcNS_11char_traitsIcEENS_9allocatorIcEEEEPNS_11__tree_nodeIS6_PvEElEESD_, symObjAddr: 0x1A990, symBinAddr: 0x10001C2A4, symSize: 0x34 }
  - { offset: 0x211C0, size: 0x8, addend: 0x0, symName: __ZNSt3__1eqB8ne180100ERKNS_21__tree_const_iteratorINS_12basic_stringIcNS_11char_traitsIcEENS_9allocatorIcEEEEPNS_11__tree_nodeIS6_PvEElEESD_, symObjAddr: 0x1AE50, symBinAddr: 0x10001C764, symSize: 0x30 }
  - { offset: 0x211FD, size: 0x8, addend: 0x0, symName: __ZNSt3__116__tree_next_iterB8ne180100IPNS_15__tree_end_nodeIPNS_16__tree_node_baseIPvEEEES5_EET_T0_, symObjAddr: 0x1AF04, symBinAddr: 0x10001C818, symSize: 0x80 }
  - { offset: 0x2123B, size: 0x8, addend: 0x0, symName: __ZNSt3__110__tree_minB8ne180100IPNS_16__tree_node_baseIPvEEEET_S5_, symObjAddr: 0x1AF84, symBinAddr: 0x10001C898, symSize: 0x40 }
  - { offset: 0x21270, size: 0x8, addend: 0x0, symName: __ZNSt3__120__throw_out_of_rangeB8ne180100EPKc, symObjAddr: 0x1B160, symBinAddr: 0x10001CA74, symSize: 0x64 }
  - { offset: 0x21298, size: 0x8, addend: 0x0, symName: __ZNSt3__1neB8ne180100IcNS_11char_traitsIcEEEEbRKNS_19istreambuf_iteratorIT_T0_EES8_, symObjAddr: 0x1B9C8, symBinAddr: 0x10001D2DC, symSize: 0x34 }
  - { offset: 0x2277F, size: 0x8, addend: 0x0, symName: __ZSt28__throw_bad_array_new_lengthB8ne180100v, symObjAddr: 0x3BE4, symBinAddr: 0x1000054F8, symSize: 0x34 }
  - { offset: 0x24630, size: 0x8, addend: 0x0, symName: __ZNSt3__16vectorI5TokenNS_9allocatorIS1_EEE26__swap_out_circular_bufferERNS_14__split_bufferIS1_RS3_EE, symObjAddr: 0x3454, symBinAddr: 0x100004D68, symSize: 0x110 }
  - { offset: 0x24714, size: 0x8, addend: 0x0, symName: __ZNSt3__16vectorINS_12basic_stringIcNS_11char_traitsIcEENS_9allocatorIcEEEENS4_IS6_EEE26__swap_out_circular_bufferERNS_14__split_bufferIS6_RS7_EE, symObjAddr: 0x8CD0, symBinAddr: 0x10000A5E4, symSize: 0x110 }
  - { offset: 0x247DD, size: 0x8, addend: 0x0, symName: __ZNSt3__16vectorINS_12basic_stringIcNS_11char_traitsIcEENS_9allocatorIcEEEENS4_IS6_EEE26__swap_out_circular_bufferERNS_14__split_bufferIS6_RS7_EEPS6_, symObjAddr: 0xA4AC, symBinAddr: 0x10000BDC0, symSize: 0x14C }
  - { offset: 0x2483E, size: 0x8, addend: 0x0, symName: __ZNSt3__16vectorI9ParameterNS_9allocatorIS1_EEE26__swap_out_circular_bufferERNS_14__split_bufferIS1_RS3_EE, symObjAddr: 0xBEF0, symBinAddr: 0x10000D804, symSize: 0x110 }
  - { offset: 0x248DB, size: 0x8, addend: 0x0, symName: __ZNSt3__16vectorI9PredicateNS_9allocatorIS1_EEE26__swap_out_circular_bufferERNS_14__split_bufferIS1_RS3_EE, symObjAddr: 0xD7DC, symBinAddr: 0x10000F0F0, symSize: 0x110 }
  - { offset: 0x249EA, size: 0x8, addend: 0x0, symName: __ZNSt3__16vectorI9PredicateNS_9allocatorIS1_EEE26__swap_out_circular_bufferERNS_14__split_bufferIS1_RS3_EEPS1_, symObjAddr: 0xFF80, symBinAddr: 0x100011894, symSize: 0x14C }
  - { offset: 0x24A4B, size: 0x8, addend: 0x0, symName: __ZNSt3__16vectorI9ParameterNS_9allocatorIS1_EEE26__swap_out_circular_bufferERNS_14__split_bufferIS1_RS3_EEPS1_, symObjAddr: 0x154E0, symBinAddr: 0x100016DF4, symSize: 0x14C }
  - { offset: 0x24AAC, size: 0x8, addend: 0x0, symName: __ZNSt3__16vectorI4RuleNS_9allocatorIS1_EEE26__swap_out_circular_bufferERNS_14__split_bufferIS1_RS3_EE, symObjAddr: 0x165A8, symBinAddr: 0x100017EBC, symSize: 0x110 }
  - { offset: 0x24B6F, size: 0x8, addend: 0x0, symName: __ZNSt3__16vectorI4RuleNS_9allocatorIS1_EEE26__swap_out_circular_bufferERNS_14__split_bufferIS1_RS3_EEPS1_, symObjAddr: 0x17F98, symBinAddr: 0x1000198AC, symSize: 0x14C }
  - { offset: 0x24C20, size: 0x8, addend: 0x0, symName: _main, symObjAddr: 0x0, symBinAddr: 0x100001914, symSize: 0x294 }
  - { offset: 0x24CB6, size: 0x8, addend: 0x0, symName: __ZNSt3__112basic_stringIcNS_11char_traitsIcEENS_9allocatorIcEEEC1B8ne180100ILi0EEEPKc, symObjAddr: 0x294, symBinAddr: 0x100001BA8, symSize: 0x34 }
  - { offset: 0x24FA4, size: 0x8, addend: 0x0, symName: __ZNSt3__114basic_ifstreamIcNS_11char_traitsIcEEEC1ERKNS_12basic_stringIcS2_NS_9allocatorIcEEEEj, symObjAddr: 0x2C8, symBinAddr: 0x100001BDC, symSize: 0x164 }
  - { offset: 0x24FEE, size: 0x8, addend: 0x0, symName: __ZNKSt3__19basic_iosIcNS_11char_traitsIcEEEntB8ne180100Ev, symObjAddr: 0x42C, symBinAddr: 0x100001D40, symSize: 0x28 }
  - { offset: 0x25014, size: 0x8, addend: 0x0, symName: __ZNSt3__113basic_ostreamIcNS_11char_traitsIcEEElsB8ne180100EPFRS3_S4_E, symObjAddr: 0x49C, symBinAddr: 0x100001DB0, symSize: 0x2C }
  - { offset: 0x25048, size: 0x8, addend: 0x0, symName: __ZNSt3__119istreambuf_iteratorIcNS_11char_traitsIcEEEC1B8ne180100ERNS_13basic_istreamIcS2_EE, symObjAddr: 0x520, symBinAddr: 0x100001E34, symSize: 0x34 }
  - { offset: 0x25080, size: 0x8, addend: 0x0, symName: __ZNSt3__119istreambuf_iteratorIcNS_11char_traitsIcEEEC1B8ne180100Ev, symObjAddr: 0x554, symBinAddr: 0x100001E68, symSize: 0x2C }
  - { offset: 0x250AA, size: 0x8, addend: 0x0, symName: __ZNSt3__112basic_stringIcNS_11char_traitsIcEENS_9allocatorIcEEEC1B8ne180100INS_19istreambuf_iteratorIcS2_EELi0EEET_S9_, symObjAddr: 0x580, symBinAddr: 0x100001E94, symSize: 0x3C }
  - { offset: 0x25101, size: 0x8, addend: 0x0, symName: __ZN7ScannerC1ENSt3__112basic_stringIcNS0_11char_traitsIcEENS0_9allocatorIcEEEE, symObjAddr: 0x5BC, symBinAddr: 0x100001ED0, symSize: 0x34 }
  - { offset: 0x2513A, size: 0x8, addend: 0x0, symName: __ZN7Scanner10scanTokensEv, symObjAddr: 0x5F0, symBinAddr: 0x100001F04, symSize: 0xC4C }
  - { offset: 0x25214, size: 0x8, addend: 0x0, symName: __ZNSt3__114basic_ifstreamIcNS_11char_traitsIcEEE5closeEv, symObjAddr: 0x123C, symBinAddr: 0x100002B50, symSize: 0x58 }
  - { offset: 0x2523C, size: 0x8, addend: 0x0, symName: __ZN6ParserC1ERKNSt3__16vectorI5TokenNS0_9allocatorIS2_EEEE, symObjAddr: 0x1294, symBinAddr: 0x100002BA8, symSize: 0x34 }
  - { offset: 0x25274, size: 0x8, addend: 0x0, symName: __ZN6Parser5parseEv, symObjAddr: 0x12C8, symBinAddr: 0x100002BDC, symSize: 0x1E4 }
  - { offset: 0x252BE, size: 0x8, addend: 0x0, symName: __ZN6ParserD1Ev, symObjAddr: 0x14AC, symBinAddr: 0x100002DC0, symSize: 0x2C }
  - { offset: 0x252EA, size: 0x8, addend: 0x0, symName: __ZNSt3__16vectorI5TokenNS_9allocatorIS1_EEED1B8ne180100Ev, symObjAddr: 0x14D8, symBinAddr: 0x100002DEC, symSize: 0x2C }
  - { offset: 0x25314, size: 0x8, addend: 0x0, symName: __ZN7ScannerD1Ev, symObjAddr: 0x1504, symBinAddr: 0x100002E18, symSize: 0x2C }
  - { offset: 0x25345, size: 0x8, addend: 0x0, symName: __ZNSt3__114basic_ifstreamIcNS_11char_traitsIcEEED1Ev, symObjAddr: 0x1530, symBinAddr: 0x100002E44, symSize: 0x40 }
  - { offset: 0x25372, size: 0x8, addend: 0x0, symName: __ZNSt3__119istreambuf_iteratorIcNS_11char_traitsIcEEEC2B8ne180100Ev, symObjAddr: 0x1570, symBinAddr: 0x100002E84, symSize: 0x18 }
  - { offset: 0x2539C, size: 0x8, addend: 0x0, symName: __ZN7ScannerC2ENSt3__112basic_stringIcNS0_11char_traitsIcEENS0_9allocatorIcEEEE, symObjAddr: 0x1588, symBinAddr: 0x100002E9C, symSize: 0x3C }
  - { offset: 0x253D5, size: 0x8, addend: 0x0, symName: __ZNSt3__16vectorI5TokenNS_9allocatorIS1_EEEC1B8ne180100Ev, symObjAddr: 0x15C4, symBinAddr: 0x100002ED8, symSize: 0x2C }
  - { offset: 0x253FF, size: 0x8, addend: 0x0, symName: __ZNKSt3__112basic_stringIcNS_11char_traitsIcEENS_9allocatorIcEEE4sizeB8ne180100Ev, symObjAddr: 0x15F0, symBinAddr: 0x100002F04, symSize: 0x54 }
  - { offset: 0x25425, size: 0x8, addend: 0x0, symName: __ZNSt3__112basic_stringIcNS_11char_traitsIcEENS_9allocatorIcEEEixB8ne180100Em, symObjAddr: 0x1644, symBinAddr: 0x100002F58, symSize: 0x48 }
  - { offset: 0x2545A, size: 0x8, addend: 0x0, symName: __ZNSt3__112basic_stringIcNS_11char_traitsIcEENS_9allocatorIcEEEC1B8ne180100Ev, symObjAddr: 0x168C, symBinAddr: 0x100002FA0, symSize: 0x2C }
  - { offset: 0x25483, size: 0x8, addend: 0x0, symName: __Z7isspacei, symObjAddr: 0x16B8, symBinAddr: 0x100002FCC, symSize: 0x28 }
  - { offset: 0x254B2, size: 0x8, addend: 0x0, symName: __ZNSt3__112basic_stringIcNS_11char_traitsIcEENS_9allocatorIcEEEaSB8ne180100EPKc, symObjAddr: 0x16E0, symBinAddr: 0x100002FF4, symSize: 0x2C }
  - { offset: 0x254E6, size: 0x8, addend: 0x0, symName: __Z7isalphai, symObjAddr: 0x170C, symBinAddr: 0x100003020, symSize: 0x28 }
  - { offset: 0x25512, size: 0x8, addend: 0x0, symName: __Z7isalnumi, symObjAddr: 0x1734, symBinAddr: 0x100003048, symSize: 0x28 }
  - { offset: 0x2553E, size: 0x8, addend: 0x0, symName: __Z7isdigiti, symObjAddr: 0x175C, symBinAddr: 0x100003070, symSize: 0x28 }
  - { offset: 0x2556B, size: 0x8, addend: 0x0, symName: __ZNKSt3__112basic_stringIcNS_11char_traitsIcEENS_9allocatorIcEEE6substrB8ne180100Emm, symObjAddr: 0x1784, symBinAddr: 0x100003098, symSize: 0x68 }
  - { offset: 0x255AF, size: 0x8, addend: 0x0, symName: __ZNSt3__112basic_stringIcNS_11char_traitsIcEENS_9allocatorIcEEEaSB8ne180100EOS5_, symObjAddr: 0x17EC, symBinAddr: 0x100003100, symSize: 0x34 }
  - { offset: 0x255E4, size: 0x8, addend: 0x0, symName: __ZNSt3__16vectorI5TokenNS_9allocatorIS1_EEE9push_backB8ne180100EOS1_, symObjAddr: 0x1900, symBinAddr: 0x100003214, symSize: 0x90 }
  - { offset: 0x2562A, size: 0x8, addend: 0x0, symName: __ZN5TokenC1E9TokenTypeNSt3__112basic_stringIcNS1_11char_traitsIcEENS1_9allocatorIcEEEEi, symObjAddr: 0x1990, symBinAddr: 0x1000032A4, symSize: 0x44 }
  - { offset: 0x2567F, size: 0x8, addend: 0x0, symName: __ZN5TokenD1Ev, symObjAddr: 0x19D4, symBinAddr: 0x1000032E8, symSize: 0x2C }
  - { offset: 0x256AB, size: 0x8, addend: 0x0, symName: __ZNSt3__16vectorI5TokenNS_9allocatorIS1_EEEC2B8ne180100Ev, symObjAddr: 0x1A00, symBinAddr: 0x100003314, symSize: 0x4C }
  - { offset: 0x256E1, size: 0x8, addend: 0x0, symName: __ZNSt3__117__compressed_pairIP5TokenNS_9allocatorIS1_EEEC1B8ne180100IDnNS_18__default_init_tagEEEOT_OT0_, symObjAddr: 0x1A4C, symBinAddr: 0x100003360, symSize: 0x3C }
  - { offset: 0x25739, size: 0x8, addend: 0x0, symName: __ZNSt3__117__compressed_pairIP5TokenNS_9allocatorIS1_EEEC2B8ne180100IDnNS_18__default_init_tagEEEOT_OT0_, symObjAddr: 0x1A98, symBinAddr: 0x1000033AC, symSize: 0x40 }
  - { offset: 0x25791, size: 0x8, addend: 0x0, symName: __ZNSt3__122__compressed_pair_elemIP5TokenLi0ELb0EEC2B8ne180100IDnvEEOT_, symObjAddr: 0x1AD8, symBinAddr: 0x1000033EC, symSize: 0x1C }
  - { offset: 0x257D3, size: 0x8, addend: 0x0, symName: __ZNSt3__122__compressed_pair_elemINS_9allocatorI5TokenEELi1ELb1EEC2B8ne180100ENS_18__default_init_tagE, symObjAddr: 0x1AF4, symBinAddr: 0x100003408, symSize: 0x2C }
  - { offset: 0x25807, size: 0x8, addend: 0x0, symName: __ZNSt3__19allocatorI5TokenEC2B8ne180100Ev, symObjAddr: 0x1B20, symBinAddr: 0x100003434, symSize: 0x2C }
  - { offset: 0x25831, size: 0x8, addend: 0x0, symName: __ZNSt3__116__non_trivial_ifILb1ENS_9allocatorI5TokenEEEC2B8ne180100Ev, symObjAddr: 0x1B4C, symBinAddr: 0x100003460, symSize: 0x14 }
  - { offset: 0x2585B, size: 0x8, addend: 0x0, symName: __ZNKSt3__112basic_stringIcNS_11char_traitsIcEENS_9allocatorIcEEE9__is_longB8ne180100Ev, symObjAddr: 0x1B60, symBinAddr: 0x100003474, symSize: 0x38 }
  - { offset: 0x25881, size: 0x8, addend: 0x0, symName: __ZNKSt3__112basic_stringIcNS_11char_traitsIcEENS_9allocatorIcEEE15__get_long_sizeB8ne180100Ev, symObjAddr: 0x1B98, symBinAddr: 0x1000034AC, symSize: 0x28 }
  - { offset: 0x258A7, size: 0x8, addend: 0x0, symName: __ZNKSt3__112basic_stringIcNS_11char_traitsIcEENS_9allocatorIcEEE16__get_short_sizeB8ne180100Ev, symObjAddr: 0x1BC0, symBinAddr: 0x1000034D4, symSize: 0x34 }
  - { offset: 0x258CD, size: 0x8, addend: 0x0, symName: __ZNKSt3__117__compressed_pairINS_12basic_stringIcNS_11char_traitsIcEENS_9allocatorIcEEE5__repES5_E5firstB8ne180100Ev, symObjAddr: 0x1BF4, symBinAddr: 0x100003508, symSize: 0x24 }
  - { offset: 0x258F3, size: 0x8, addend: 0x0, symName: __ZNKSt3__122__compressed_pair_elemINS_12basic_stringIcNS_11char_traitsIcEENS_9allocatorIcEEE5__repELi0ELb0EE5__getB8ne180100Ev, symObjAddr: 0x1C18, symBinAddr: 0x10000352C, symSize: 0x14 }
  - { offset: 0x25919, size: 0x8, addend: 0x0, symName: __ZNSt3__112basic_stringIcNS_11char_traitsIcEENS_9allocatorIcEEE13__fits_in_ssoB8ne180100Em, symObjAddr: 0x1C2C, symBinAddr: 0x100003540, symSize: 0x20 }
  - { offset: 0x2593D, size: 0x8, addend: 0x0, symName: __ZNSt3__112basic_stringIcNS_11char_traitsIcEENS_9allocatorIcEEE18__get_long_pointerB8ne180100Ev, symObjAddr: 0x1C4C, symBinAddr: 0x100003560, symSize: 0x28 }
  - { offset: 0x25963, size: 0x8, addend: 0x0, symName: __ZNSt3__112basic_stringIcNS_11char_traitsIcEENS_9allocatorIcEEE13__get_pointerB8ne180100Ev, symObjAddr: 0x1C74, symBinAddr: 0x100003588, symSize: 0x54 }
  - { offset: 0x25989, size: 0x8, addend: 0x0, symName: __ZNSt3__117__compressed_pairINS_12basic_stringIcNS_11char_traitsIcEENS_9allocatorIcEEE5__repES5_E5firstB8ne180100Ev, symObjAddr: 0x1CC8, symBinAddr: 0x1000035DC, symSize: 0x24 }
  - { offset: 0x259AF, size: 0x8, addend: 0x0, symName: __ZNSt3__122__compressed_pair_elemINS_12basic_stringIcNS_11char_traitsIcEENS_9allocatorIcEEE5__repELi0ELb0EE5__getB8ne180100Ev, symObjAddr: 0x1CEC, symBinAddr: 0x100003600, symSize: 0x14 }
  - { offset: 0x259D5, size: 0x8, addend: 0x0, symName: __ZNSt3__112basic_stringIcNS_11char_traitsIcEENS_9allocatorIcEEE19__get_short_pointerB8ne180100Ev, symObjAddr: 0x1D00, symBinAddr: 0x100003614, symSize: 0x28 }
  - { offset: 0x259FB, size: 0x8, addend: 0x0, symName: __ZNSt3__114pointer_traitsIPcE10pointer_toB8ne180100ERc, symObjAddr: 0x1D28, symBinAddr: 0x10000363C, symSize: 0x14 }
  - { offset: 0x25A1E, size: 0x8, addend: 0x0, symName: __ZNSt3__112basic_stringIcNS_11char_traitsIcEENS_9allocatorIcEEEC2B8ne180100Ev, symObjAddr: 0x1D3C, symBinAddr: 0x100003650, symSize: 0x48 }
  - { offset: 0x25A4E, size: 0x8, addend: 0x0, symName: __ZNSt3__117__compressed_pairINS_12basic_stringIcNS_11char_traitsIcEENS_9allocatorIcEEE5__repES5_EC1B8ne180100INS_16__value_init_tagENS_18__default_init_tagEEEOT_OT0_, symObjAddr: 0x1D84, symBinAddr: 0x100003698, symSize: 0x3C }
  - { offset: 0x25AA6, size: 0x8, addend: 0x0, symName: __ZNKSt3__112basic_stringIcNS_11char_traitsIcEENS_9allocatorIcEEE14__annotate_newB8ne180100Em, symObjAddr: 0x1DC0, symBinAddr: 0x1000036D4, symSize: 0x14 }
  - { offset: 0x25ADB, size: 0x8, addend: 0x0, symName: __ZNSt3__117__compressed_pairINS_12basic_stringIcNS_11char_traitsIcEENS_9allocatorIcEEE5__repES5_EC2B8ne180100INS_16__value_init_tagENS_18__default_init_tagEEEOT_OT0_, symObjAddr: 0x1DD4, symBinAddr: 0x1000036E8, symSize: 0x3C }
  - { offset: 0x25B33, size: 0x8, addend: 0x0, symName: __ZNSt3__122__compressed_pair_elemINS_12basic_stringIcNS_11char_traitsIcEENS_9allocatorIcEEE5__repELi0ELb0EEC2B8ne180100ENS_16__value_init_tagE, symObjAddr: 0x1E10, symBinAddr: 0x100003724, symSize: 0x20 }
  - { offset: 0x25B67, size: 0x8, addend: 0x0, symName: __ZNSt3__122__compressed_pair_elemINS_9allocatorIcEELi1ELb1EEC2B8ne180100ENS_18__default_init_tagE, symObjAddr: 0x1E30, symBinAddr: 0x100003744, symSize: 0x2C }
  - { offset: 0x25B9B, size: 0x8, addend: 0x0, symName: __ZNSt3__19allocatorIcEC2B8ne180100Ev, symObjAddr: 0x1E5C, symBinAddr: 0x100003770, symSize: 0x2C }
  - { offset: 0x25BC5, size: 0x8, addend: 0x0, symName: __ZNSt3__116__non_trivial_ifILb1ENS_9allocatorIcEEEC2B8ne180100Ev, symObjAddr: 0x1E88, symBinAddr: 0x10000379C, symSize: 0x14 }
  - { offset: 0x25BEE, size: 0x8, addend: 0x0, symName: __Z8__istypeim, symObjAddr: 0x1E9C, symBinAddr: 0x1000037B0, symSize: 0x84 }
  - { offset: 0x25C28, size: 0x8, addend: 0x0, symName: __Z7isasciii, symObjAddr: 0x1F20, symBinAddr: 0x100003834, symSize: 0x24 }
  - { offset: 0x25C54, size: 0x8, addend: 0x0, symName: __Z9__isctypeim, symObjAddr: 0x1F44, symBinAddr: 0x100003858, symSize: 0x78 }
  - { offset: 0x25C8F, size: 0x8, addend: 0x0, symName: __ZNSt3__19allocatorIcEC1B8ne180100Ev, symObjAddr: 0x1FBC, symBinAddr: 0x1000038D0, symSize: 0x2C }
  - { offset: 0x25CB9, size: 0x8, addend: 0x0, symName: __ZNSt3__112basic_stringIcNS_11char_traitsIcEENS_9allocatorIcEEE13__move_assignB8ne180100ERS5_NS_17integral_constantIbLb1EEE, symObjAddr: 0x1FE8, symBinAddr: 0x1000038FC, symSize: 0x17C }
  - { offset: 0x25D1A, size: 0x8, addend: 0x0, symName: __ZNKSt3__112basic_stringIcNS_11char_traitsIcEENS_9allocatorIcEEE17__annotate_deleteB8ne180100Ev, symObjAddr: 0x2164, symBinAddr: 0x100003A78, symSize: 0x10 }
  - { offset: 0x25D40, size: 0x8, addend: 0x0, symName: __ZNSt3__116allocator_traitsINS_9allocatorIcEEE10deallocateB8ne180100ERS2_Pcm, symObjAddr: 0x2174, symBinAddr: 0x100003A88, symSize: 0x34 }
  - { offset: 0x25D82, size: 0x8, addend: 0x0, symName: __ZNSt3__112basic_stringIcNS_11char_traitsIcEENS_9allocatorIcEEE7__allocB8ne180100Ev, symObjAddr: 0x21A8, symBinAddr: 0x100003ABC, symSize: 0x24 }
  - { offset: 0x25DA8, size: 0x8, addend: 0x0, symName: __ZNKSt3__112basic_stringIcNS_11char_traitsIcEENS_9allocatorIcEEE14__get_long_capB8ne180100Ev, symObjAddr: 0x21CC, symBinAddr: 0x100003AE0, symSize: 0x30 }
  - { offset: 0x25DCE, size: 0x8, addend: 0x0, symName: __ZNSt3__112basic_stringIcNS_11char_traitsIcEENS_9allocatorIcEEE19__move_assign_allocB8ne180100ERS5_, symObjAddr: 0x21FC, symBinAddr: 0x100003B10, symSize: 0x2C }
  - { offset: 0x25E03, size: 0x8, addend: 0x0, symName: __ZNSt3__112basic_stringIcNS_11char_traitsIcEENS_9allocatorIcEEE16__set_short_sizeB8ne180100Em, symObjAddr: 0x2228, symBinAddr: 0x100003B3C, symSize: 0x78 }
  - { offset: 0x25E38, size: 0x8, addend: 0x0, symName: __ZNSt3__111char_traitsIcE6assignB8ne180100ERcRKc, symObjAddr: 0x22A0, symBinAddr: 0x100003BB4, symSize: 0x24 }
  - { offset: 0x25E69, size: 0x8, addend: 0x0, symName: __ZNKSt3__112basic_stringIcNS_11char_traitsIcEENS_9allocatorIcEEE17__annotate_shrinkB8ne180100Em, symObjAddr: 0x22C4, symBinAddr: 0x100003BD8, symSize: 0x14 }
  - { offset: 0x25E9E, size: 0x8, addend: 0x0, symName: __ZNSt3__19allocatorIcE10deallocateB8ne180100EPcm, symObjAddr: 0x22D8, symBinAddr: 0x100003BEC, symSize: 0x40 }
  - { offset: 0x25EE0, size: 0x8, addend: 0x0, symName: __ZNSt3__117__compressed_pairINS_12basic_stringIcNS_11char_traitsIcEENS_9allocatorIcEEE5__repES5_E6secondB8ne180100Ev, symObjAddr: 0x2440, symBinAddr: 0x100003D54, symSize: 0x24 }
  - { offset: 0x25F06, size: 0x8, addend: 0x0, symName: __ZNSt3__122__compressed_pair_elemINS_9allocatorIcEELi1ELb1EE5__getB8ne180100Ev, symObjAddr: 0x2464, symBinAddr: 0x100003D78, symSize: 0x14 }
  - { offset: 0x25F2C, size: 0x8, addend: 0x0, symName: __ZNSt3__112basic_stringIcNS_11char_traitsIcEENS_9allocatorIcEEE19__move_assign_allocB8ne180100ERS5_NS_17integral_constantIbLb1EEE, symObjAddr: 0x2478, symBinAddr: 0x100003D8C, symSize: 0x38 }
  - { offset: 0x25F6D, size: 0x8, addend: 0x0, symName: __ZNSt3__111char_traitsIcE6lengthB8ne180100EPKc, symObjAddr: 0x24B0, symBinAddr: 0x100003DC4, symSize: 0x34 }
  - { offset: 0x25FB1, size: 0x8, addend: 0x0, symName: __ZNKSt3__113basic_ostreamIcNS_11char_traitsIcEEE6sentrycvbB8ne180100Ev, symObjAddr: 0x26F4, symBinAddr: 0x100004008, symSize: 0x1C }
  - { offset: 0x25FD7, size: 0x8, addend: 0x0, symName: __ZNSt3__119ostreambuf_iteratorIcNS_11char_traitsIcEEEC1B8ne180100ERNS_13basic_ostreamIcS2_EE, symObjAddr: 0x2950, symBinAddr: 0x100004264, symSize: 0x34 }
  - { offset: 0x2600F, size: 0x8, addend: 0x0, symName: __ZNKSt3__18ios_base5flagsB8ne180100Ev, symObjAddr: 0x2984, symBinAddr: 0x100004298, symSize: 0x18 }
  - { offset: 0x26037, size: 0x8, addend: 0x0, symName: __ZNKSt3__19basic_iosIcNS_11char_traitsIcEEE4fillB8ne180100Ev, symObjAddr: 0x299C, symBinAddr: 0x1000042B0, symSize: 0x64 }
  - { offset: 0x2605F, size: 0x8, addend: 0x0, symName: __ZNKSt3__119ostreambuf_iteratorIcNS_11char_traitsIcEEE6failedB8ne180100Ev, symObjAddr: 0x2A00, symBinAddr: 0x100004314, symSize: 0x24 }
  - { offset: 0x26085, size: 0x8, addend: 0x0, symName: __ZNSt3__19basic_iosIcNS_11char_traitsIcEEE8setstateB8ne180100Ej, symObjAddr: 0x2A24, symBinAddr: 0x100004338, symSize: 0x2C }
  - { offset: 0x260BA, size: 0x8, addend: 0x0, symName: __ZNKSt3__18ios_base5widthB8ne180100Ev, symObjAddr: 0x2A50, symBinAddr: 0x100004364, symSize: 0x18 }
  - { offset: 0x260E2, size: 0x8, addend: 0x0, symName: __ZNSt3__115basic_streambufIcNS_11char_traitsIcEEE5sputnB8ne180100EPKcl, symObjAddr: 0x2A68, symBinAddr: 0x10000437C, symSize: 0x3C }
  - { offset: 0x26124, size: 0x8, addend: 0x0, symName: __ZNSt3__112basic_stringIcNS_11char_traitsIcEENS_9allocatorIcEEEC1B8ne180100Emc, symObjAddr: 0x2AA4, symBinAddr: 0x1000043B8, symSize: 0x3C }
  - { offset: 0x2616C, size: 0x8, addend: 0x0, symName: __ZNSt3__112basic_stringIcNS_11char_traitsIcEENS_9allocatorIcEEE4dataB8ne180100Ev, symObjAddr: 0x2AE0, symBinAddr: 0x1000043F4, symSize: 0x28 }
  - { offset: 0x26192, size: 0x8, addend: 0x0, symName: __ZNSt3__18ios_base5widthB8ne180100El, symObjAddr: 0x2B08, symBinAddr: 0x10000441C, symSize: 0x2C }
  - { offset: 0x261D8, size: 0x8, addend: 0x0, symName: __ZNSt3__112basic_stringIcNS_11char_traitsIcEENS_9allocatorIcEEEC2B8ne180100Emc, symObjAddr: 0x2B34, symBinAddr: 0x100004448, symSize: 0x4C }
  - { offset: 0x26220, size: 0x8, addend: 0x0, symName: __ZNSt3__117__compressed_pairINS_12basic_stringIcNS_11char_traitsIcEENS_9allocatorIcEEE5__repES5_EC1B8ne180100INS_18__default_init_tagESA_EEOT_OT0_, symObjAddr: 0x2B80, symBinAddr: 0x100004494, symSize: 0x3C }
  - { offset: 0x26278, size: 0x8, addend: 0x0, symName: __ZNSt3__117__compressed_pairINS_12basic_stringIcNS_11char_traitsIcEENS_9allocatorIcEEE5__repES5_EC2B8ne180100INS_18__default_init_tagESA_EEOT_OT0_, symObjAddr: 0x2BBC, symBinAddr: 0x1000044D0, symSize: 0x3C }
  - { offset: 0x262D0, size: 0x8, addend: 0x0, symName: __ZNSt3__122__compressed_pair_elemINS_12basic_stringIcNS_11char_traitsIcEENS_9allocatorIcEEE5__repELi0ELb0EEC2B8ne180100ENS_18__default_init_tagE, symObjAddr: 0x2BF8, symBinAddr: 0x10000450C, symSize: 0x14 }
  - { offset: 0x26304, size: 0x8, addend: 0x0, symName: __ZNSt3__119ostreambuf_iteratorIcNS_11char_traitsIcEEEC2B8ne180100ERNS_13basic_ostreamIcS2_EE, symObjAddr: 0x2C20, symBinAddr: 0x100004534, symSize: 0x54 }
  - { offset: 0x2633C, size: 0x8, addend: 0x0, symName: __ZNKSt3__19basic_iosIcNS_11char_traitsIcEEE5rdbufB8ne180100Ev, symObjAddr: 0x2C74, symBinAddr: 0x100004588, symSize: 0x24 }
  - { offset: 0x26364, size: 0x8, addend: 0x0, symName: __ZNKSt3__18ios_base5rdbufB8ne180100Ev, symObjAddr: 0x2C98, symBinAddr: 0x1000045AC, symSize: 0x18 }
  - { offset: 0x2638A, size: 0x8, addend: 0x0, symName: __ZNSt3__111char_traitsIcE11eq_int_typeB8ne180100Eii, symObjAddr: 0x2CB0, symBinAddr: 0x1000045C4, symSize: 0x28 }
  - { offset: 0x263BD, size: 0x8, addend: 0x0, symName: __ZNSt3__111char_traitsIcE3eofB8ne180100Ev, symObjAddr: 0x2CD8, symBinAddr: 0x1000045EC, symSize: 0x8 }
  - { offset: 0x263D1, size: 0x8, addend: 0x0, symName: __ZNKSt3__19basic_iosIcNS_11char_traitsIcEEE5widenB8ne180100Ec, symObjAddr: 0x2CE0, symBinAddr: 0x1000045F4, symSize: 0x84 }
  - { offset: 0x2644A, size: 0x8, addend: 0x0, symName: __ZNKSt3__15ctypeIcE5widenB8ne180100Ec, symObjAddr: 0x2D90, symBinAddr: 0x1000046A4, symSize: 0x38 }
  - { offset: 0x2647F, size: 0x8, addend: 0x0, symName: __ZNSt3__18ios_base8setstateB8ne180100Ej, symObjAddr: 0x2DC8, symBinAddr: 0x1000046DC, symSize: 0x34 }
  - { offset: 0x264B6, size: 0x8, addend: 0x0, symName: __ZNSt3__16vectorI5TokenNS_9allocatorIS1_EEE9__end_capB8ne180100Ev, symObjAddr: 0x2DFC, symBinAddr: 0x100004710, symSize: 0x28 }
  - { offset: 0x264E2, size: 0x8, addend: 0x0, symName: __ZNSt3__16vectorI5TokenNS_9allocatorIS1_EEE22__construct_one_at_endB8ne180100IJS1_EEEvDpOT_, symObjAddr: 0x2E24, symBinAddr: 0x100004738, symSize: 0x90 }
  - { offset: 0x26531, size: 0x8, addend: 0x0, symName: __ZNSt3__16vectorI5TokenNS_9allocatorIS1_EEE21__push_back_slow_pathIS1_EEPS1_OT_, symObjAddr: 0x2EB4, symBinAddr: 0x1000047C8, symSize: 0xE8 }
  - { offset: 0x2658F, size: 0x8, addend: 0x0, symName: __ZNSt3__117__compressed_pairIP5TokenNS_9allocatorIS1_EEE5firstB8ne180100Ev, symObjAddr: 0x2F9C, symBinAddr: 0x1000048B0, symSize: 0x24 }
  - { offset: 0x265B5, size: 0x8, addend: 0x0, symName: __ZNSt3__122__compressed_pair_elemIP5TokenLi0ELb0EE5__getB8ne180100Ev, symObjAddr: 0x2FC0, symBinAddr: 0x1000048D4, symSize: 0x14 }
  - { offset: 0x265F6, size: 0x8, addend: 0x0, symName: __ZNSt3__16vectorI5TokenNS_9allocatorIS1_EEE21_ConstructTransactionC1B8ne180100ERS4_m, symObjAddr: 0x2FD4, symBinAddr: 0x1000048E8, symSize: 0x3C }
  - { offset: 0x2663E, size: 0x8, addend: 0x0, symName: __ZNSt3__116allocator_traitsINS_9allocatorI5TokenEEE9constructB8ne180100IS2_JS2_EvEEvRS3_PT_DpOT0_, symObjAddr: 0x3010, symBinAddr: 0x100004924, symSize: 0x34 }
  - { offset: 0x26695, size: 0x8, addend: 0x0, symName: __ZNSt3__16vectorI5TokenNS_9allocatorIS1_EEE7__allocB8ne180100Ev, symObjAddr: 0x3044, symBinAddr: 0x100004958, symSize: 0x28 }
  - { offset: 0x266BB, size: 0x8, addend: 0x0, symName: __ZNSt3__16vectorI5TokenNS_9allocatorIS1_EEE21_ConstructTransactionD1B8ne180100Ev, symObjAddr: 0x3080, symBinAddr: 0x100004994, symSize: 0x2C }
  - { offset: 0x266E5, size: 0x8, addend: 0x0, symName: __ZNSt3__16vectorI5TokenNS_9allocatorIS1_EEE21_ConstructTransactionC2B8ne180100ERS4_m, symObjAddr: 0x30AC, symBinAddr: 0x1000049C0, symSize: 0x4C }
  - { offset: 0x2672D, size: 0x8, addend: 0x0, symName: __ZNSt3__19allocatorI5TokenE9constructB8ne180100IS1_JS1_EEEvPT_DpOT0_, symObjAddr: 0x30F8, symBinAddr: 0x100004A0C, symSize: 0x30 }
  - { offset: 0x26783, size: 0x8, addend: 0x0, symName: __ZN5TokenC1EOS_, symObjAddr: 0x3128, symBinAddr: 0x100004A3C, symSize: 0x34 }
  - { offset: 0x267B8, size: 0x8, addend: 0x0, symName: __ZN5TokenC2EOS_, symObjAddr: 0x315C, symBinAddr: 0x100004A70, symSize: 0x54 }
  - { offset: 0x267ED, size: 0x8, addend: 0x0, symName: __ZNSt3__112basic_stringIcNS_11char_traitsIcEENS_9allocatorIcEEEC1B8ne180100EOS5_, symObjAddr: 0x31B0, symBinAddr: 0x100004AC4, symSize: 0x34 }
  - { offset: 0x26826, size: 0x8, addend: 0x0, symName: __ZNSt3__112basic_stringIcNS_11char_traitsIcEENS_9allocatorIcEEEC2B8ne180100EOS5_, symObjAddr: 0x31E4, symBinAddr: 0x100004AF8, symSize: 0xB8 }
  - { offset: 0x26890, size: 0x8, addend: 0x0, symName: __ZZNSt3__112basic_stringIcNS_11char_traitsIcEENS_9allocatorIcEEEC1B8ne180100EOS5_ENKUlRS5_E_clES7_, symObjAddr: 0x329C, symBinAddr: 0x100004BB0, symSize: 0x40 }
  - { offset: 0x268C9, size: 0x8, addend: 0x0, symName: __ZNSt3__117__compressed_pairIP5TokenNS_9allocatorIS1_EEE6secondB8ne180100Ev, symObjAddr: 0x32DC, symBinAddr: 0x100004BF0, symSize: 0x24 }
  - { offset: 0x268EF, size: 0x8, addend: 0x0, symName: __ZNSt3__122__compressed_pair_elemINS_9allocatorI5TokenEELi1ELb1EE5__getB8ne180100Ev, symObjAddr: 0x3300, symBinAddr: 0x100004C14, symSize: 0x14 }
  - { offset: 0x26915, size: 0x8, addend: 0x0, symName: __ZNSt3__16vectorI5TokenNS_9allocatorIS1_EEE21_ConstructTransactionD2B8ne180100Ev, symObjAddr: 0x3314, symBinAddr: 0x100004C28, symSize: 0x20 }
  - { offset: 0x2693F, size: 0x8, addend: 0x0, symName: __ZNKSt3__16vectorI5TokenNS_9allocatorIS1_EEE11__recommendB8ne180100Em, symObjAddr: 0x3334, symBinAddr: 0x100004C48, symSize: 0xB4 }
  - { offset: 0x26994, size: 0x8, addend: 0x0, symName: __ZNKSt3__16vectorI5TokenNS_9allocatorIS1_EEE4sizeB8ne180100Ev, symObjAddr: 0x33E8, symBinAddr: 0x100004CFC, symSize: 0x28 }
  - { offset: 0x269BA, size: 0x8, addend: 0x0, symName: __ZNSt3__114__split_bufferI5TokenRNS_9allocatorIS1_EEEC1EmmS4_, symObjAddr: 0x3410, symBinAddr: 0x100004D24, symSize: 0x44 }
  - { offset: 0x26A10, size: 0x8, addend: 0x0, symName: __ZNSt3__114__split_bufferI5TokenRNS_9allocatorIS1_EEED1Ev, symObjAddr: 0x3564, symBinAddr: 0x100004E78, symSize: 0x2C }
  - { offset: 0x26A3C, size: 0x8, addend: 0x0, symName: __ZNKSt3__16vectorI5TokenNS_9allocatorIS1_EEE8max_sizeEv, symObjAddr: 0x3590, symBinAddr: 0x100004EA4, symSize: 0x60 }
  - { offset: 0x26A64, size: 0x8, addend: 0x0, symName: __ZNKSt3__16vectorI5TokenNS_9allocatorIS1_EEE20__throw_length_errorB8ne180100Ev, symObjAddr: 0x35F0, symBinAddr: 0x100004F04, symSize: 0x1C }
  - { offset: 0x26A8A, size: 0x8, addend: 0x0, symName: __ZNKSt3__16vectorI5TokenNS_9allocatorIS1_EEE8capacityB8ne180100Ev, symObjAddr: 0x360C, symBinAddr: 0x100004F20, symSize: 0x40 }
  - { offset: 0x26ABB, size: 0x8, addend: 0x0, symName: __ZNSt3__116allocator_traitsINS_9allocatorI5TokenEEE8max_sizeB8ne180100IS3_vEEmRKS3_, symObjAddr: 0x36A4, symBinAddr: 0x100004FB8, symSize: 0x24 }
  - { offset: 0x26AE9, size: 0x8, addend: 0x0, symName: __ZNKSt3__16vectorI5TokenNS_9allocatorIS1_EEE7__allocB8ne180100Ev, symObjAddr: 0x36C8, symBinAddr: 0x100004FDC, symSize: 0x28 }
  - { offset: 0x26B0F, size: 0x8, addend: 0x0, symName: __ZNSt3__114numeric_limitsIlE3maxB8ne180100Ev, symObjAddr: 0x36F0, symBinAddr: 0x100005004, symSize: 0x14 }
  - { offset: 0x26B2D, size: 0x8, addend: 0x0, symName: __ZNKSt3__16__lessIvvEclB8ne180100ImmEEbRKT_RKT0_, symObjAddr: 0x3758, symBinAddr: 0x10000506C, symSize: 0x34 }
  - { offset: 0x26B81, size: 0x8, addend: 0x0, symName: __ZNKSt3__19allocatorI5TokenE8max_sizeB8ne180100Ev, symObjAddr: 0x378C, symBinAddr: 0x1000050A0, symSize: 0x18 }
  - { offset: 0x26BA7, size: 0x8, addend: 0x0, symName: __ZNKSt3__117__compressed_pairIP5TokenNS_9allocatorIS1_EEE6secondB8ne180100Ev, symObjAddr: 0x37A4, symBinAddr: 0x1000050B8, symSize: 0x24 }
  - { offset: 0x26BCD, size: 0x8, addend: 0x0, symName: __ZNKSt3__122__compressed_pair_elemINS_9allocatorI5TokenEELi1ELb1EE5__getB8ne180100Ev, symObjAddr: 0x37C8, symBinAddr: 0x1000050DC, symSize: 0x14 }
  - { offset: 0x26BF3, size: 0x8, addend: 0x0, symName: __ZNSt3__123__libcpp_numeric_limitsIlLb1EE3maxB8ne180100Ev, symObjAddr: 0x37DC, symBinAddr: 0x1000050F0, symSize: 0x8 }
  - { offset: 0x26C07, size: 0x8, addend: 0x0, symName: __ZNSt12length_errorC1B8ne180100EPKc, symObjAddr: 0x3848, symBinAddr: 0x10000515C, symSize: 0x34 }
  - { offset: 0x26C3F, size: 0x8, addend: 0x0, symName: __ZNSt12length_errorC2B8ne180100EPKc, symObjAddr: 0x387C, symBinAddr: 0x100005190, symSize: 0x44 }
  - { offset: 0x26C77, size: 0x8, addend: 0x0, symName: __ZNKSt3__16vectorI5TokenNS_9allocatorIS1_EEE9__end_capB8ne180100Ev, symObjAddr: 0x38C0, symBinAddr: 0x1000051D4, symSize: 0x28 }
  - { offset: 0x26C9D, size: 0x8, addend: 0x0, symName: __ZNKSt3__117__compressed_pairIP5TokenNS_9allocatorIS1_EEE5firstB8ne180100Ev, symObjAddr: 0x38E8, symBinAddr: 0x1000051FC, symSize: 0x24 }
  - { offset: 0x26CC3, size: 0x8, addend: 0x0, symName: __ZNKSt3__122__compressed_pair_elemIP5TokenLi0ELb0EE5__getB8ne180100Ev, symObjAddr: 0x390C, symBinAddr: 0x100005220, symSize: 0x14 }
  - { offset: 0x26CE9, size: 0x8, addend: 0x0, symName: __ZNSt3__114__split_bufferI5TokenRNS_9allocatorIS1_EEEC2EmmS4_, symObjAddr: 0x3974, symBinAddr: 0x100005288, symSize: 0xE0 }
  - { offset: 0x26D5C, size: 0x8, addend: 0x0, symName: __ZNSt3__117__compressed_pairIP5TokenRNS_9allocatorIS1_EEEC1B8ne180100IDnS5_EEOT_OT0_, symObjAddr: 0x3A54, symBinAddr: 0x100005368, symSize: 0x3C }
  - { offset: 0x26DB4, size: 0x8, addend: 0x0, symName: __ZNSt3__114__split_bufferI5TokenRNS_9allocatorIS1_EEE7__allocB8ne180100Ev, symObjAddr: 0x3AD0, symBinAddr: 0x1000053E4, symSize: 0x28 }
  - { offset: 0x26DDA, size: 0x8, addend: 0x0, symName: __ZNSt3__114__split_bufferI5TokenRNS_9allocatorIS1_EEE9__end_capB8ne180100Ev, symObjAddr: 0x3AF8, symBinAddr: 0x10000540C, symSize: 0x28 }
  - { offset: 0x26E00, size: 0x8, addend: 0x0, symName: __ZNSt3__117__compressed_pairIP5TokenRNS_9allocatorIS1_EEEC2B8ne180100IDnS5_EEOT_OT0_, symObjAddr: 0x3B20, symBinAddr: 0x100005434, symSize: 0x48 }
  - { offset: 0x26E58, size: 0x8, addend: 0x0, symName: __ZNSt3__122__compressed_pair_elemIRNS_9allocatorI5TokenEELi1ELb0EEC2B8ne180100IS4_vEEOT_, symObjAddr: 0x3B68, symBinAddr: 0x10000547C, symSize: 0x20 }
  - { offset: 0x26E9A, size: 0x8, addend: 0x0, symName: __ZNSt3__19allocatorI5TokenE8allocateB8ne180100Em, symObjAddr: 0x3B88, symBinAddr: 0x10000549C, symSize: 0x5C }
  - { offset: 0x26ECE, size: 0x8, addend: 0x0, symName: __ZNSt3__117__compressed_pairIP5TokenRNS_9allocatorIS1_EEE6secondB8ne180100Ev, symObjAddr: 0x3CC8, symBinAddr: 0x1000055DC, symSize: 0x28 }
  - { offset: 0x26EF4, size: 0x8, addend: 0x0, symName: __ZNSt3__122__compressed_pair_elemIRNS_9allocatorI5TokenEELi1ELb0EE5__getB8ne180100Ev, symObjAddr: 0x3CF0, symBinAddr: 0x100005604, symSize: 0x18 }
  - { offset: 0x26F1A, size: 0x8, addend: 0x0, symName: __ZNSt3__117__compressed_pairIP5TokenRNS_9allocatorIS1_EEE5firstB8ne180100Ev, symObjAddr: 0x3D08, symBinAddr: 0x10000561C, symSize: 0x24 }
  - { offset: 0x26F40, size: 0x8, addend: 0x0, symName: __ZNKSt3__16vectorI5TokenNS_9allocatorIS1_EEE17__annotate_deleteB8ne180100Ev, symObjAddr: 0x3D2C, symBinAddr: 0x100005640, symSize: 0x10 }
  - { offset: 0x26F66, size: 0x8, addend: 0x0, symName: __ZNSt3__116reverse_iteratorIP5TokenEC1B8ne180100ES2_, symObjAddr: 0x3E68, symBinAddr: 0x10000577C, symSize: 0x34 }
  - { offset: 0x26F9E, size: 0x8, addend: 0x0, symName: __ZNKSt3__116reverse_iteratorIP5TokenE4baseB8ne180100Ev, symObjAddr: 0x3E9C, symBinAddr: 0x1000057B0, symSize: 0x18 }
  - { offset: 0x26FC4, size: 0x8, addend: 0x0, symName: __ZNKSt3__16vectorI5TokenNS_9allocatorIS1_EEE14__annotate_newB8ne180100Em, symObjAddr: 0x3EF0, symBinAddr: 0x100005804, symSize: 0x14 }
  - { offset: 0x26FF9, size: 0x8, addend: 0x0, symName: __ZNSt3__129_AllocatorDestroyRangeReverseINS_9allocatorI5TokenEENS_16reverse_iteratorIPS2_EEEC1B8ne180100ERS3_RS6_S9_, symObjAddr: 0x3F50, symBinAddr: 0x100005864, symSize: 0x44 }
  - { offset: 0x27050, size: 0x8, addend: 0x0, symName: __ZNKSt3__116reverse_iteratorIP5TokenEdeB8ne180100Ev, symObjAddr: 0x4000, symBinAddr: 0x100005914, symSize: 0x28 }
  - { offset: 0x27084, size: 0x8, addend: 0x0, symName: __ZNSt3__116reverse_iteratorIP5TokenEppB8ne180100Ev, symObjAddr: 0x4028, symBinAddr: 0x10000593C, symSize: 0x20 }
  - { offset: 0x270AA, size: 0x8, addend: 0x0, symName: __ZNSt3__128__exception_guard_exceptionsINS_29_AllocatorDestroyRangeReverseINS_9allocatorI5TokenEENS_16reverse_iteratorIPS3_EEEEE10__completeB8ne180100Ev, symObjAddr: 0x4048, symBinAddr: 0x10000595C, symSize: 0x1C }
  - { offset: 0x270D0, size: 0x8, addend: 0x0, symName: __ZNSt3__128__exception_guard_exceptionsINS_29_AllocatorDestroyRangeReverseINS_9allocatorI5TokenEENS_16reverse_iteratorIPS3_EEEEED1B8ne180100Ev, symObjAddr: 0x4064, symBinAddr: 0x100005978, symSize: 0x2C }
  - { offset: 0x270FA, size: 0x8, addend: 0x0, symName: __ZNSt3__128__exception_guard_exceptionsINS_29_AllocatorDestroyRangeReverseINS_9allocatorI5TokenEENS_16reverse_iteratorIPS3_EEEEEC1B8ne180100ES8_, symObjAddr: 0x4090, symBinAddr: 0x1000059A4, symSize: 0x34 }
  - { offset: 0x27133, size: 0x8, addend: 0x0, symName: __ZNSt3__128__exception_guard_exceptionsINS_29_AllocatorDestroyRangeReverseINS_9allocatorI5TokenEENS_16reverse_iteratorIPS3_EEEEEC2B8ne180100ES8_, symObjAddr: 0x40C4, symBinAddr: 0x1000059D8, symSize: 0x30 }
  - { offset: 0x2716C, size: 0x8, addend: 0x0, symName: __ZNSt3__129_AllocatorDestroyRangeReverseINS_9allocatorI5TokenEENS_16reverse_iteratorIPS2_EEEC2B8ne180100ERS3_RS6_S9_, symObjAddr: 0x40F4, symBinAddr: 0x100005A08, symSize: 0x38 }
  - { offset: 0x271C9, size: 0x8, addend: 0x0, symName: __ZNSt3__119__to_address_helperINS_16reverse_iteratorIP5TokenEEvE6__callB8ne180100ERKS4_, symObjAddr: 0x412C, symBinAddr: 0x100005A40, symSize: 0x38 }
  - { offset: 0x271EC, size: 0x8, addend: 0x0, symName: __ZNKSt3__116reverse_iteratorIP5TokenEptB8ne180100Ev, symObjAddr: 0x4164, symBinAddr: 0x100005A78, symSize: 0x24 }
  - { offset: 0x27212, size: 0x8, addend: 0x0, symName: __ZNSt3__128__exception_guard_exceptionsINS_29_AllocatorDestroyRangeReverseINS_9allocatorI5TokenEENS_16reverse_iteratorIPS3_EEEEED2B8ne180100Ev, symObjAddr: 0x4188, symBinAddr: 0x100005A9C, symSize: 0x50 }
  - { offset: 0x2723C, size: 0x8, addend: 0x0, symName: __ZNKSt3__129_AllocatorDestroyRangeReverseINS_9allocatorI5TokenEENS_16reverse_iteratorIPS2_EEEclB8ne180100Ev, symObjAddr: 0x41D8, symBinAddr: 0x100005AEC, symSize: 0xB4 }
  - { offset: 0x27263, size: 0x8, addend: 0x0, symName: __ZNSt3__116reverse_iteratorINS0_IP5TokenEEEC1B8ne180100ES3_, symObjAddr: 0x42FC, symBinAddr: 0x100005C10, symSize: 0x3C }
  - { offset: 0x2729B, size: 0x8, addend: 0x0, symName: __ZNSt3__116allocator_traitsINS_9allocatorI5TokenEEE7destroyB8ne180100IS2_vEEvRS3_PT_, symObjAddr: 0x4398, symBinAddr: 0x100005CAC, symSize: 0x2C }
  - { offset: 0x272D8, size: 0x8, addend: 0x0, symName: __ZNSt3__116reverse_iteratorINS0_IP5TokenEEEppB8ne180100Ev, symObjAddr: 0x43E8, symBinAddr: 0x100005CFC, symSize: 0x30 }
  - { offset: 0x272FE, size: 0x8, addend: 0x0, symName: __ZNKSt3__116reverse_iteratorINS0_IP5TokenEEE4baseB8ne180100Ev, symObjAddr: 0x4418, symBinAddr: 0x100005D2C, symSize: 0x24 }
  - { offset: 0x27324, size: 0x8, addend: 0x0, symName: __ZNSt3__19allocatorI5TokenE7destroyB8ne180100EPS1_, symObjAddr: 0x443C, symBinAddr: 0x100005D50, symSize: 0x28 }
  - { offset: 0x2735E, size: 0x8, addend: 0x0, symName: __ZNSt3__119__to_address_helperINS_16reverse_iteratorINS1_IP5TokenEEEEvE6__callB8ne180100ERKS5_, symObjAddr: 0x4464, symBinAddr: 0x100005D78, symSize: 0x38 }
  - { offset: 0x27381, size: 0x8, addend: 0x0, symName: __ZNKSt3__116reverse_iteratorINS0_IP5TokenEEEptB8ne180100Ev, symObjAddr: 0x449C, symBinAddr: 0x100005DB0, symSize: 0x24 }
  - { offset: 0x273A7, size: 0x8, addend: 0x0, symName: __ZNKSt3__116reverse_iteratorINS0_IP5TokenEEEdeB8ne180100Ev, symObjAddr: 0x44C0, symBinAddr: 0x100005DD4, symSize: 0x34 }
  - { offset: 0x273DB, size: 0x8, addend: 0x0, symName: __ZNSt3__116reverse_iteratorIP5TokenEmmB8ne180100Ev, symObjAddr: 0x44F4, symBinAddr: 0x100005E08, symSize: 0x20 }
  - { offset: 0x27401, size: 0x8, addend: 0x0, symName: __ZNSt3__116reverse_iteratorINS0_IP5TokenEEEC2B8ne180100ES3_, symObjAddr: 0x4514, symBinAddr: 0x100005E28, symSize: 0x2C }
  - { offset: 0x27439, size: 0x8, addend: 0x0, symName: __ZNSt3__116reverse_iteratorIP5TokenEC2B8ne180100ES2_, symObjAddr: 0x4540, symBinAddr: 0x100005E54, symSize: 0x28 }
  - { offset: 0x27471, size: 0x8, addend: 0x0, symName: __ZNSt3__114__split_bufferI5TokenRNS_9allocatorIS1_EEED2Ev, symObjAddr: 0x4568, symBinAddr: 0x100005E7C, symSize: 0x8C }
  - { offset: 0x2749D, size: 0x8, addend: 0x0, symName: __ZNSt3__114__split_bufferI5TokenRNS_9allocatorIS1_EEE5clearB8ne180100Ev, symObjAddr: 0x45F4, symBinAddr: 0x100005F08, symSize: 0x28 }
  - { offset: 0x274C3, size: 0x8, addend: 0x0, symName: __ZNSt3__116allocator_traitsINS_9allocatorI5TokenEEE10deallocateB8ne180100ERS3_PS2_m, symObjAddr: 0x461C, symBinAddr: 0x100005F30, symSize: 0x34 }
  - { offset: 0x27505, size: 0x8, addend: 0x0, symName: __ZNKSt3__114__split_bufferI5TokenRNS_9allocatorIS1_EEE8capacityB8ne180100Ev, symObjAddr: 0x4650, symBinAddr: 0x100005F64, symSize: 0x40 }
  - { offset: 0x2752B, size: 0x8, addend: 0x0, symName: __ZNSt3__114__split_bufferI5TokenRNS_9allocatorIS1_EEE17__destruct_at_endB8ne180100EPS1_, symObjAddr: 0x4690, symBinAddr: 0x100005FA4, symSize: 0x2C }
  - { offset: 0x2755F, size: 0x8, addend: 0x0, symName: __ZNSt3__114__split_bufferI5TokenRNS_9allocatorIS1_EEE17__destruct_at_endB8ne180100EPS1_NS_17integral_constantIbLb0EEE, symObjAddr: 0x46BC, symBinAddr: 0x100005FD0, symSize: 0x80 }
  - { offset: 0x2759F, size: 0x8, addend: 0x0, symName: __ZNSt3__19allocatorI5TokenE10deallocateB8ne180100EPS1_m, symObjAddr: 0x473C, symBinAddr: 0x100006050, symSize: 0x44 }
  - { offset: 0x275E1, size: 0x8, addend: 0x0, symName: __ZNKSt3__114__split_bufferI5TokenRNS_9allocatorIS1_EEE9__end_capB8ne180100Ev, symObjAddr: 0x4780, symBinAddr: 0x100006094, symSize: 0x28 }
  - { offset: 0x27607, size: 0x8, addend: 0x0, symName: __ZNKSt3__117__compressed_pairIP5TokenRNS_9allocatorIS1_EEE5firstB8ne180100Ev, symObjAddr: 0x47A8, symBinAddr: 0x1000060BC, symSize: 0x24 }
  - { offset: 0x2762D, size: 0x8, addend: 0x0, symName: __ZN5TokenC2E9TokenTypeNSt3__112basic_stringIcNS1_11char_traitsIcEENS1_9allocatorIcEEEEi, symObjAddr: 0x47CC, symBinAddr: 0x1000060E0, symSize: 0x58 }
  - { offset: 0x27682, size: 0x8, addend: 0x0, symName: __ZN5TokenD2Ev, symObjAddr: 0x4824, symBinAddr: 0x100006138, symSize: 0x30 }
  - { offset: 0x276AE, size: 0x8, addend: 0x0, symName: __ZN6ParserC2ERKNSt3__16vectorI5TokenNS0_9allocatorIS2_EEEE, symObjAddr: 0x4854, symBinAddr: 0x100006168, symSize: 0x34 }
  - { offset: 0x276E6, size: 0x8, addend: 0x0, symName: __ZNSt3__16vectorI5TokenNS_9allocatorIS1_EEEC1ERKS4_, symObjAddr: 0x4888, symBinAddr: 0x10000619C, symSize: 0x34 }
  - { offset: 0x27721, size: 0x8, addend: 0x0, symName: __ZNSt3__16vectorI5TokenNS_9allocatorIS1_EEEC2ERKS4_, symObjAddr: 0x48BC, symBinAddr: 0x1000061D0, symSize: 0x94 }
  - { offset: 0x2775C, size: 0x8, addend: 0x0, symName: __ZNSt3__116allocator_traitsINS_9allocatorI5TokenEEE37select_on_container_copy_constructionB8ne180100IS3_vvEES3_RKS3_, symObjAddr: 0x4950, symBinAddr: 0x100006264, symSize: 0x10 }
  - { offset: 0x27791, size: 0x8, addend: 0x0, symName: __ZNSt3__117__compressed_pairIP5TokenNS_9allocatorIS1_EEEC1B8ne180100IDnS4_EEOT_OT0_, symObjAddr: 0x4960, symBinAddr: 0x100006274, symSize: 0x3C }
  - { offset: 0x277E9, size: 0x8, addend: 0x0, symName: __ZNSt3__16vectorI5TokenNS_9allocatorIS1_EEE16__init_with_sizeB8ne180100IPS1_S6_EEvT_T0_m, symObjAddr: 0x499C, symBinAddr: 0x1000062B0, symSize: 0xB8 }
  - { offset: 0x2785D, size: 0x8, addend: 0x0, symName: __ZNSt3__117__compressed_pairIP5TokenNS_9allocatorIS1_EEEC2B8ne180100IDnS4_EEOT_OT0_, symObjAddr: 0x4A54, symBinAddr: 0x100006368, symSize: 0x44 }
  - { offset: 0x278B5, size: 0x8, addend: 0x0, symName: __ZNSt3__122__compressed_pair_elemINS_9allocatorI5TokenEELi1ELb1EEC2B8ne180100IS3_vEEOT_, symObjAddr: 0x4A98, symBinAddr: 0x1000063AC, symSize: 0x18 }
  - { offset: 0x278F7, size: 0x8, addend: 0x0, symName: __ZNSt3__16vectorI5TokenNS_9allocatorIS1_EEE16__destroy_vectorC1B8ne180100ERS4_, symObjAddr: 0x4AF0, symBinAddr: 0x100006404, symSize: 0x34 }
  - { offset: 0x27930, size: 0x8, addend: 0x0, symName: __ZNSt3__16vectorI5TokenNS_9allocatorIS1_EEE11__vallocateB8ne180100Em, symObjAddr: 0x4B24, symBinAddr: 0x100006438, symSize: 0xB4 }
  - { offset: 0x27974, size: 0x8, addend: 0x0, symName: __ZNSt3__16vectorI5TokenNS_9allocatorIS1_EEE18__construct_at_endIPS1_S6_EEvT_T0_m, symObjAddr: 0x4BD8, symBinAddr: 0x1000064EC, symSize: 0x8C }
  - { offset: 0x279EA, size: 0x8, addend: 0x0, symName: __ZNSt3__128__exception_guard_exceptionsINS_6vectorI5TokenNS_9allocatorIS2_EEE16__destroy_vectorEE10__completeB8ne180100Ev, symObjAddr: 0x4C64, symBinAddr: 0x100006578, symSize: 0x1C }
  - { offset: 0x27A10, size: 0x8, addend: 0x0, symName: __ZNSt3__128__exception_guard_exceptionsINS_6vectorI5TokenNS_9allocatorIS2_EEE16__destroy_vectorEED1B8ne180100Ev, symObjAddr: 0x4C80, symBinAddr: 0x100006594, symSize: 0x2C }
  - { offset: 0x27A3A, size: 0x8, addend: 0x0, symName: __ZNSt3__128__exception_guard_exceptionsINS_6vectorI5TokenNS_9allocatorIS2_EEE16__destroy_vectorEEC1B8ne180100ES6_, symObjAddr: 0x4CAC, symBinAddr: 0x1000065C0, symSize: 0x34 }
  - { offset: 0x27A72, size: 0x8, addend: 0x0, symName: __ZNSt3__128__exception_guard_exceptionsINS_6vectorI5TokenNS_9allocatorIS2_EEE16__destroy_vectorEEC2B8ne180100ES6_, symObjAddr: 0x4CE0, symBinAddr: 0x1000065F4, symSize: 0x24 }
  - { offset: 0x27AAA, size: 0x8, addend: 0x0, symName: __ZNSt3__16vectorI5TokenNS_9allocatorIS1_EEE16__destroy_vectorC2B8ne180100ERS4_, symObjAddr: 0x4D04, symBinAddr: 0x100006618, symSize: 0x20 }
  - { offset: 0x27B05, size: 0x8, addend: 0x0, symName: __ZNSt3__14pairIP5TokenS2_EC1B8ne180100IS2_S2_Li0EEEOT_OT0_, symObjAddr: 0x4F90, symBinAddr: 0x1000068A4, symSize: 0x3C }
  - { offset: 0x27B63, size: 0x8, addend: 0x0, symName: __ZNSt3__14pairIP5TokenS2_EC2B8ne180100IS2_S2_Li0EEEOT_OT0_, symObjAddr: 0x4FCC, symBinAddr: 0x1000068E0, symSize: 0x34 }
  - { offset: 0x27BC1, size: 0x8, addend: 0x0, symName: __ZNSt3__129_AllocatorDestroyRangeReverseINS_9allocatorI5TokenEEPS2_EC1B8ne180100ERS3_RS4_S7_, symObjAddr: 0x504C, symBinAddr: 0x100006960, symSize: 0x44 }
  - { offset: 0x27C18, size: 0x8, addend: 0x0, symName: __ZNSt3__116allocator_traitsINS_9allocatorI5TokenEEE9constructB8ne180100IS2_JRS2_EvEEvRS3_PT_DpOT0_, symObjAddr: 0x5090, symBinAddr: 0x1000069A4, symSize: 0x34 }
  - { offset: 0x27C6F, size: 0x8, addend: 0x0, symName: __ZNSt3__128__exception_guard_exceptionsINS_29_AllocatorDestroyRangeReverseINS_9allocatorI5TokenEEPS3_EEE10__completeB8ne180100Ev, symObjAddr: 0x50C4, symBinAddr: 0x1000069D8, symSize: 0x1C }
  - { offset: 0x27C95, size: 0x8, addend: 0x0, symName: __ZNSt3__128__exception_guard_exceptionsINS_29_AllocatorDestroyRangeReverseINS_9allocatorI5TokenEEPS3_EEED1B8ne180100Ev, symObjAddr: 0x50E0, symBinAddr: 0x1000069F4, symSize: 0x2C }
  - { offset: 0x27CBF, size: 0x8, addend: 0x0, symName: __ZNSt3__128__exception_guard_exceptionsINS_29_AllocatorDestroyRangeReverseINS_9allocatorI5TokenEEPS3_EEEC1B8ne180100ES6_, symObjAddr: 0x510C, symBinAddr: 0x100006A20, symSize: 0x34 }
  - { offset: 0x27CF8, size: 0x8, addend: 0x0, symName: __ZNSt3__128__exception_guard_exceptionsINS_29_AllocatorDestroyRangeReverseINS_9allocatorI5TokenEEPS3_EEEC2B8ne180100ES6_, symObjAddr: 0x5140, symBinAddr: 0x100006A54, symSize: 0x30 }
  - { offset: 0x27D31, size: 0x8, addend: 0x0, symName: __ZNSt3__129_AllocatorDestroyRangeReverseINS_9allocatorI5TokenEEPS2_EC2B8ne180100ERS3_RS4_S7_, symObjAddr: 0x5170, symBinAddr: 0x100006A84, symSize: 0x38 }
  - { offset: 0x27D88, size: 0x8, addend: 0x0, symName: __ZNSt3__19allocatorI5TokenE9constructB8ne180100IS1_JRS1_EEEvPT_DpOT0_, symObjAddr: 0x51A8, symBinAddr: 0x100006ABC, symSize: 0x30 }
  - { offset: 0x27DDE, size: 0x8, addend: 0x0, symName: __ZN5TokenC1ERKS_, symObjAddr: 0x51D8, symBinAddr: 0x100006AEC, symSize: 0x34 }
  - { offset: 0x27E13, size: 0x8, addend: 0x0, symName: __ZN5TokenC2ERKS_, symObjAddr: 0x520C, symBinAddr: 0x100006B20, symSize: 0x54 }
  - { offset: 0x27E48, size: 0x8, addend: 0x0, symName: __ZNSt3__128__exception_guard_exceptionsINS_29_AllocatorDestroyRangeReverseINS_9allocatorI5TokenEEPS3_EEED2B8ne180100Ev, symObjAddr: 0x5260, symBinAddr: 0x100006B74, symSize: 0x50 }
  - { offset: 0x27E72, size: 0x8, addend: 0x0, symName: __ZNKSt3__129_AllocatorDestroyRangeReverseINS_9allocatorI5TokenEEPS2_EclB8ne180100Ev, symObjAddr: 0x52B0, symBinAddr: 0x100006BC4, symSize: 0x68 }
  - { offset: 0x27E98, size: 0x8, addend: 0x0, symName: __ZNSt3__118__unwrap_iter_implIP5TokenLb1EE8__unwrapB8ne180100ES2_, symObjAddr: 0x5388, symBinAddr: 0x100006C9C, symSize: 0x24 }
  - { offset: 0x27EBB, size: 0x8, addend: 0x0, symName: __ZNSt3__118__unwrap_iter_implIP5TokenLb1EE8__rewrapB8ne180100ES2_S2_, symObjAddr: 0x53AC, symBinAddr: 0x100006CC0, symSize: 0x58 }
  - { offset: 0x27EEC, size: 0x8, addend: 0x0, symName: __ZNSt3__128__exception_guard_exceptionsINS_6vectorI5TokenNS_9allocatorIS2_EEE16__destroy_vectorEED2B8ne180100Ev, symObjAddr: 0x5404, symBinAddr: 0x100006D18, symSize: 0x50 }
  - { offset: 0x27F16, size: 0x8, addend: 0x0, symName: __ZNSt3__16vectorI5TokenNS_9allocatorIS1_EEE16__destroy_vectorclB8ne180100Ev, symObjAddr: 0x5454, symBinAddr: 0x100006D68, symSize: 0x90 }
  - { offset: 0x27F3C, size: 0x8, addend: 0x0, symName: __ZNSt3__16vectorI5TokenNS_9allocatorIS1_EEE7__clearB8ne180100Ev, symObjAddr: 0x54E4, symBinAddr: 0x100006DF8, symSize: 0x28 }
  - { offset: 0x27F62, size: 0x8, addend: 0x0, symName: __ZNSt3__16vectorI5TokenNS_9allocatorIS1_EEE22__base_destruct_at_endB8ne180100EPS1_, symObjAddr: 0x550C, symBinAddr: 0x100006E20, symSize: 0x8C }
  - { offset: 0x27FA6, size: 0x8, addend: 0x0, symName: __ZN14DatalogProgramC1Ev, symObjAddr: 0x5598, symBinAddr: 0x100006EAC, symSize: 0x2C }
  - { offset: 0x27FD2, size: 0x8, addend: 0x0, symName: __ZN6Parser14datalogProgramER14DatalogProgram, symObjAddr: 0x55C4, symBinAddr: 0x100006ED8, symSize: 0x568 }
  - { offset: 0x28198, size: 0x8, addend: 0x0, symName: __ZN14DatalogProgram8toStringEv, symObjAddr: 0x5B78, symBinAddr: 0x10000748C, symSize: 0x5CC }
  - { offset: 0x28256, size: 0x8, addend: 0x0, symName: __ZN14DatalogProgramD1Ev, symObjAddr: 0x6144, symBinAddr: 0x100007A58, symSize: 0x2C }
  - { offset: 0x28282, size: 0x8, addend: 0x0, symName: __ZNSt3__16vectorI5TokenNS_9allocatorIS1_EEE2atEm, symObjAddr: 0x6170, symBinAddr: 0x100007A84, symSize: 0x68 }
  - { offset: 0x282B9, size: 0x8, addend: 0x0, symName: __ZNK5Token8toStringEv, symObjAddr: 0x61D8, symBinAddr: 0x100007AEC, symSize: 0x184 }
  - { offset: 0x282EE, size: 0x8, addend: 0x0, symName: __ZN14DatalogProgramC2Ev, symObjAddr: 0x635C, symBinAddr: 0x100007C70, symSize: 0x5C }
  - { offset: 0x2831A, size: 0x8, addend: 0x0, symName: __ZNSt3__16vectorI9PredicateNS_9allocatorIS1_EEEC1B8ne180100Ev, symObjAddr: 0x63B8, symBinAddr: 0x100007CCC, symSize: 0x2C }
  - { offset: 0x28344, size: 0x8, addend: 0x0, symName: __ZNSt3__16vectorI4RuleNS_9allocatorIS1_EEEC1B8ne180100Ev, symObjAddr: 0x63E4, symBinAddr: 0x100007CF8, symSize: 0x2C }
  - { offset: 0x2836E, size: 0x8, addend: 0x0, symName: __ZNSt3__13setINS_12basic_stringIcNS_11char_traitsIcEENS_9allocatorIcEEEENS_4lessIS6_EENS4_IS6_EEEC1B8ne180100Ev, symObjAddr: 0x6410, symBinAddr: 0x100007D24, symSize: 0x2C }
  - { offset: 0x28398, size: 0x8, addend: 0x0, symName: __ZNSt3__16vectorI9PredicateNS_9allocatorIS1_EEEC2B8ne180100Ev, symObjAddr: 0x643C, symBinAddr: 0x100007D50, symSize: 0x4C }
  - { offset: 0x283C2, size: 0x8, addend: 0x0, symName: __ZNSt3__117__compressed_pairIP9PredicateNS_9allocatorIS1_EEEC1B8ne180100IDnNS_18__default_init_tagEEEOT_OT0_, symObjAddr: 0x6488, symBinAddr: 0x100007D9C, symSize: 0x3C }
  - { offset: 0x2841A, size: 0x8, addend: 0x0, symName: __ZNSt3__117__compressed_pairIP9PredicateNS_9allocatorIS1_EEEC2B8ne180100IDnNS_18__default_init_tagEEEOT_OT0_, symObjAddr: 0x64C4, symBinAddr: 0x100007DD8, symSize: 0x40 }
  - { offset: 0x28472, size: 0x8, addend: 0x0, symName: __ZNSt3__122__compressed_pair_elemIP9PredicateLi0ELb0EEC2B8ne180100IDnvEEOT_, symObjAddr: 0x6504, symBinAddr: 0x100007E18, symSize: 0x1C }
  - { offset: 0x284B4, size: 0x8, addend: 0x0, symName: __ZNSt3__122__compressed_pair_elemINS_9allocatorI9PredicateEELi1ELb1EEC2B8ne180100ENS_18__default_init_tagE, symObjAddr: 0x6520, symBinAddr: 0x100007E34, symSize: 0x2C }
  - { offset: 0x284E8, size: 0x8, addend: 0x0, symName: __ZNSt3__19allocatorI9PredicateEC2B8ne180100Ev, symObjAddr: 0x654C, symBinAddr: 0x100007E60, symSize: 0x2C }
  - { offset: 0x28512, size: 0x8, addend: 0x0, symName: __ZNSt3__116__non_trivial_ifILb1ENS_9allocatorI9PredicateEEEC2B8ne180100Ev, symObjAddr: 0x6578, symBinAddr: 0x100007E8C, symSize: 0x14 }
  - { offset: 0x2853C, size: 0x8, addend: 0x0, symName: __ZNSt3__16vectorI4RuleNS_9allocatorIS1_EEEC2B8ne180100Ev, symObjAddr: 0x658C, symBinAddr: 0x100007EA0, symSize: 0x4C }
  - { offset: 0x28566, size: 0x8, addend: 0x0, symName: __ZNSt3__117__compressed_pairIP4RuleNS_9allocatorIS1_EEEC1B8ne180100IDnNS_18__default_init_tagEEEOT_OT0_, symObjAddr: 0x65D8, symBinAddr: 0x100007EEC, symSize: 0x3C }
  - { offset: 0x285BE, size: 0x8, addend: 0x0, symName: __ZNSt3__117__compressed_pairIP4RuleNS_9allocatorIS1_EEEC2B8ne180100IDnNS_18__default_init_tagEEEOT_OT0_, symObjAddr: 0x6614, symBinAddr: 0x100007F28, symSize: 0x40 }
  - { offset: 0x28616, size: 0x8, addend: 0x0, symName: __ZNSt3__122__compressed_pair_elemIP4RuleLi0ELb0EEC2B8ne180100IDnvEEOT_, symObjAddr: 0x6654, symBinAddr: 0x100007F68, symSize: 0x1C }
  - { offset: 0x28658, size: 0x8, addend: 0x0, symName: __ZNSt3__122__compressed_pair_elemINS_9allocatorI4RuleEELi1ELb1EEC2B8ne180100ENS_18__default_init_tagE, symObjAddr: 0x6670, symBinAddr: 0x100007F84, symSize: 0x2C }
  - { offset: 0x2868C, size: 0x8, addend: 0x0, symName: __ZNSt3__19allocatorI4RuleEC2B8ne180100Ev, symObjAddr: 0x669C, symBinAddr: 0x100007FB0, symSize: 0x2C }
  - { offset: 0x286B6, size: 0x8, addend: 0x0, symName: __ZNSt3__116__non_trivial_ifILb1ENS_9allocatorI4RuleEEEC2B8ne180100Ev, symObjAddr: 0x66C8, symBinAddr: 0x100007FDC, symSize: 0x14 }
  - { offset: 0x286E0, size: 0x8, addend: 0x0, symName: __ZNSt3__13setINS_12basic_stringIcNS_11char_traitsIcEENS_9allocatorIcEEEENS_4lessIS6_EENS4_IS6_EEEC2B8ne180100Ev, symObjAddr: 0x66DC, symBinAddr: 0x100007FF0, symSize: 0x30 }
  - { offset: 0x2870A, size: 0x8, addend: 0x0, symName: __ZNSt3__16__treeINS_12basic_stringIcNS_11char_traitsIcEENS_9allocatorIcEEEENS_4lessIS6_EENS4_IS6_EEEC1ERKS8_, symObjAddr: 0x670C, symBinAddr: 0x100008020, symSize: 0x34 }
  - { offset: 0x28745, size: 0x8, addend: 0x0, symName: __ZNSt3__16__treeINS_12basic_stringIcNS_11char_traitsIcEENS_9allocatorIcEEEENS_4lessIS6_EENS4_IS6_EEEC2ERKS8_, symObjAddr: 0x6740, symBinAddr: 0x100008054, symSize: 0x7C }
  - { offset: 0x28780, size: 0x8, addend: 0x0, symName: __ZNSt3__117__compressed_pairINS_15__tree_end_nodeIPNS_16__tree_node_baseIPvEEEENS_9allocatorINS_11__tree_nodeINS_12basic_stringIcNS_11char_traitsIcEENS7_IcEEEES3_EEEEEC1B8ne180100ILb1EvEEv, symObjAddr: 0x67BC, symBinAddr: 0x1000080D0, symSize: 0x2C }
  - { offset: 0x287BB, size: 0x8, addend: 0x0, symName: __ZNSt3__117__compressed_pairImNS_4lessINS_12basic_stringIcNS_11char_traitsIcEENS_9allocatorIcEEEEEEEC1B8ne180100IiRKS8_EEOT_OT0_, symObjAddr: 0x67E8, symBinAddr: 0x1000080FC, symSize: 0x3C }
  - { offset: 0x28813, size: 0x8, addend: 0x0, symName: __ZNSt3__16__treeINS_12basic_stringIcNS_11char_traitsIcEENS_9allocatorIcEEEENS_4lessIS6_EENS4_IS6_EEE10__end_nodeB8ne180100Ev, symObjAddr: 0x6824, symBinAddr: 0x100008138, symSize: 0x2C }
  - { offset: 0x28839, size: 0x8, addend: 0x0, symName: __ZNSt3__16__treeINS_12basic_stringIcNS_11char_traitsIcEENS_9allocatorIcEEEENS_4lessIS6_EENS4_IS6_EEE12__begin_nodeB8ne180100Ev, symObjAddr: 0x6850, symBinAddr: 0x100008164, symSize: 0x14 }
  - { offset: 0x2885F, size: 0x8, addend: 0x0, symName: __ZNSt3__117__compressed_pairINS_15__tree_end_nodeIPNS_16__tree_node_baseIPvEEEENS_9allocatorINS_11__tree_nodeINS_12basic_stringIcNS_11char_traitsIcEENS7_IcEEEES3_EEEEEC2B8ne180100ILb1EvEEv, symObjAddr: 0x6864, symBinAddr: 0x100008178, symSize: 0x34 }
  - { offset: 0x28894, size: 0x8, addend: 0x0, symName: __ZNSt3__122__compressed_pair_elemINS_15__tree_end_nodeIPNS_16__tree_node_baseIPvEEEELi0ELb0EEC2B8ne180100ENS_16__value_init_tagE, symObjAddr: 0x6898, symBinAddr: 0x1000081AC, symSize: 0x2C }
  - { offset: 0x288C8, size: 0x8, addend: 0x0, symName: __ZNSt3__122__compressed_pair_elemINS_9allocatorINS_11__tree_nodeINS_12basic_stringIcNS_11char_traitsIcEENS1_IcEEEEPvEEEELi1ELb1EEC2B8ne180100ENS_16__value_init_tagE, symObjAddr: 0x68C4, symBinAddr: 0x1000081D8, symSize: 0x2C }
  - { offset: 0x288FC, size: 0x8, addend: 0x0, symName: __ZNSt3__115__tree_end_nodeIPNS_16__tree_node_baseIPvEEEC1B8ne180100Ev, symObjAddr: 0x68F0, symBinAddr: 0x100008204, symSize: 0x2C }
  - { offset: 0x28926, size: 0x8, addend: 0x0, symName: __ZNSt3__115__tree_end_nodeIPNS_16__tree_node_baseIPvEEEC2B8ne180100Ev, symObjAddr: 0x691C, symBinAddr: 0x100008230, symSize: 0x18 }
  - { offset: 0x28950, size: 0x8, addend: 0x0, symName: __ZNSt3__19allocatorINS_11__tree_nodeINS_12basic_stringIcNS_11char_traitsIcEENS0_IcEEEEPvEEEC2B8ne180100Ev, symObjAddr: 0x6934, symBinAddr: 0x100008248, symSize: 0x2C }
  - { offset: 0x2897A, size: 0x8, addend: 0x0, symName: __ZNSt3__116__non_trivial_ifILb1ENS_9allocatorINS_11__tree_nodeINS_12basic_stringIcNS_11char_traitsIcEENS1_IcEEEEPvEEEEEC2B8ne180100Ev, symObjAddr: 0x6960, symBinAddr: 0x100008274, symSize: 0x14 }
  - { offset: 0x289A4, size: 0x8, addend: 0x0, symName: __ZNSt3__117__compressed_pairImNS_4lessINS_12basic_stringIcNS_11char_traitsIcEENS_9allocatorIcEEEEEEEC2B8ne180100IiRKS8_EEOT_OT0_, symObjAddr: 0x6974, symBinAddr: 0x100008288, symSize: 0x44 }
  - { offset: 0x289FC, size: 0x8, addend: 0x0, symName: __ZNSt3__122__compressed_pair_elemImLi0ELb0EEC2B8ne180100IivEEOT_, symObjAddr: 0x69B8, symBinAddr: 0x1000082CC, symSize: 0x24 }
  - { offset: 0x28A3E, size: 0x8, addend: 0x0, symName: __ZNSt3__122__compressed_pair_elemINS_4lessINS_12basic_stringIcNS_11char_traitsIcEENS_9allocatorIcEEEEEELi1ELb1EEC2B8ne180100IRKS8_vEEOT_, symObjAddr: 0x69DC, symBinAddr: 0x1000082F0, symSize: 0x18 }
  - { offset: 0x28A80, size: 0x8, addend: 0x0, symName: __ZNSt3__114pointer_traitsIPNS_15__tree_end_nodeIPNS_16__tree_node_baseIPvEEEEE10pointer_toB8ne180100ERS6_, symObjAddr: 0x69F4, symBinAddr: 0x100008308, symSize: 0x14 }
  - { offset: 0x28AA3, size: 0x8, addend: 0x0, symName: __ZNSt3__117__compressed_pairINS_15__tree_end_nodeIPNS_16__tree_node_baseIPvEEEENS_9allocatorINS_11__tree_nodeINS_12basic_stringIcNS_11char_traitsIcEENS7_IcEEEES3_EEEEE5firstB8ne180100Ev, symObjAddr: 0x6A08, symBinAddr: 0x10000831C, symSize: 0x24 }
  - { offset: 0x28AC9, size: 0x8, addend: 0x0, symName: __ZNSt3__122__compressed_pair_elemINS_15__tree_end_nodeIPNS_16__tree_node_baseIPvEEEELi0ELb0EE5__getB8ne180100Ev, symObjAddr: 0x6A2C, symBinAddr: 0x100008340, symSize: 0x14 }
  - { offset: 0x28AEF, size: 0x8, addend: 0x0, symName: __ZN6Parser9tokenTypeEv, symObjAddr: 0x6A40, symBinAddr: 0x100008354, symSize: 0x2C }
  - { offset: 0x28B15, size: 0x8, addend: 0x0, symName: __ZN6Parser5matchE9TokenType, symObjAddr: 0x6A6C, symBinAddr: 0x100008380, symSize: 0x94 }
  - { offset: 0x28B49, size: 0x8, addend: 0x0, symName: __ZN6Parser6schemeER14DatalogProgram, symObjAddr: 0x6B00, symBinAddr: 0x100008414, symSize: 0x328 }
  - { offset: 0x28C03, size: 0x8, addend: 0x0, symName: __ZN14DatalogProgram9addSchemeE9Predicate, symObjAddr: 0x6E28, symBinAddr: 0x10000873C, symSize: 0x2C }
  - { offset: 0x28C38, size: 0x8, addend: 0x0, symName: __ZN9PredicateC1ERKS_, symObjAddr: 0x6E54, symBinAddr: 0x100008768, symSize: 0x34 }
  - { offset: 0x28C6D, size: 0x8, addend: 0x0, symName: __ZN9PredicateD1Ev, symObjAddr: 0x6E88, symBinAddr: 0x10000879C, symSize: 0x2C }
  - { offset: 0x28C99, size: 0x8, addend: 0x0, symName: __ZN6Parser10schemeListER14DatalogProgram, symObjAddr: 0x6EB4, symBinAddr: 0x1000087C8, symSize: 0x1A4 }
  - { offset: 0x28D00, size: 0x8, addend: 0x0, symName: __ZNSt3__16vectorI9PredicateNS_9allocatorIS1_EEE5beginB8ne180100Ev, symObjAddr: 0x7058, symBinAddr: 0x10000896C, symSize: 0x30 }
  - { offset: 0x28D28, size: 0x8, addend: 0x0, symName: __ZNSt3__16vectorI9PredicateNS_9allocatorIS1_EEE3endB8ne180100Ev, symObjAddr: 0x7088, symBinAddr: 0x10000899C, symSize: 0x30 }
  - { offset: 0x28D50, size: 0x8, addend: 0x0, symName: __ZNKSt3__111__wrap_iterIP9PredicateEdeB8ne180100Ev, symObjAddr: 0x70EC, symBinAddr: 0x100008A00, symSize: 0x18 }
  - { offset: 0x28D76, size: 0x8, addend: 0x0, symName: __ZNSt3__111__wrap_iterIP9PredicateEppB8ne180100Ev, symObjAddr: 0x7104, symBinAddr: 0x100008A18, symSize: 0x20 }
  - { offset: 0x28D9C, size: 0x8, addend: 0x0, symName: __ZN6Parser8factListER14DatalogProgram, symObjAddr: 0x7124, symBinAddr: 0x100008A38, symSize: 0x1A4 }
  - { offset: 0x28E03, size: 0x8, addend: 0x0, symName: __ZN14DatalogProgram7addFactE9Predicate, symObjAddr: 0x72C8, symBinAddr: 0x100008BDC, symSize: 0x198 }
  - { offset: 0x28E82, size: 0x8, addend: 0x0, symName: __ZN6Parser8ruleListER14DatalogProgram, symObjAddr: 0x7460, symBinAddr: 0x100008D74, symSize: 0x1A4 }
  - { offset: 0x28EEB, size: 0x8, addend: 0x0, symName: __ZNSt3__16vectorI4RuleNS_9allocatorIS1_EEE5beginB8ne180100Ev, symObjAddr: 0x7604, symBinAddr: 0x100008F18, symSize: 0x30 }
  - { offset: 0x28F13, size: 0x8, addend: 0x0, symName: __ZNSt3__16vectorI4RuleNS_9allocatorIS1_EEE3endB8ne180100Ev, symObjAddr: 0x7634, symBinAddr: 0x100008F48, symSize: 0x30 }
  - { offset: 0x28F3B, size: 0x8, addend: 0x0, symName: __ZNKSt3__111__wrap_iterIP4RuleEdeB8ne180100Ev, symObjAddr: 0x7698, symBinAddr: 0x100008FAC, symSize: 0x18 }
  - { offset: 0x28F61, size: 0x8, addend: 0x0, symName: __ZN14DatalogProgram7addRuleE4Rule, symObjAddr: 0x76B0, symBinAddr: 0x100008FC4, symSize: 0x30 }
  - { offset: 0x28F96, size: 0x8, addend: 0x0, symName: __ZN4RuleC1ERKS_, symObjAddr: 0x76E0, symBinAddr: 0x100008FF4, symSize: 0x34 }
  - { offset: 0x28FCB, size: 0x8, addend: 0x0, symName: __ZN4RuleD1Ev, symObjAddr: 0x7714, symBinAddr: 0x100009028, symSize: 0x2C }
  - { offset: 0x28FF7, size: 0x8, addend: 0x0, symName: __ZNSt3__111__wrap_iterIP4RuleEppB8ne180100Ev, symObjAddr: 0x7740, symBinAddr: 0x100009054, symSize: 0x20 }
  - { offset: 0x2901D, size: 0x8, addend: 0x0, symName: __ZN6Parser5queryER14DatalogProgram, symObjAddr: 0x7760, symBinAddr: 0x100009074, symSize: 0xCC }
  - { offset: 0x29062, size: 0x8, addend: 0x0, symName: __ZN14DatalogProgram8addQueryE9Predicate, symObjAddr: 0x782C, symBinAddr: 0x100009140, symSize: 0x30 }
  - { offset: 0x29097, size: 0x8, addend: 0x0, symName: __ZN6Parser9queryListER14DatalogProgram, symObjAddr: 0x785C, symBinAddr: 0x100009170, symSize: 0x1A4 }
  - { offset: 0x29102, size: 0x8, addend: 0x0, symName: __ZNSt3__16vectorI9PredicateNS_9allocatorIS1_EEED1B8ne180100Ev, symObjAddr: 0x7A00, symBinAddr: 0x100009314, symSize: 0x2C }
  - { offset: 0x2912C, size: 0x8, addend: 0x0, symName: __ZNSt3__16vectorI4RuleNS_9allocatorIS1_EEED1B8ne180100Ev, symObjAddr: 0x7A2C, symBinAddr: 0x100009340, symSize: 0x2C }
  - { offset: 0x29156, size: 0x8, addend: 0x0, symName: __ZNSt3__13setINS_12basic_stringIcNS_11char_traitsIcEENS_9allocatorIcEEEENS_4lessIS6_EENS4_IS6_EEED1B8ne180100Ev, symObjAddr: 0x7A58, symBinAddr: 0x10000936C, symSize: 0x2C }
  - { offset: 0x29180, size: 0x8, addend: 0x0, symName: __ZN6Parser10throwErrorEv, symObjAddr: 0x7A84, symBinAddr: 0x100009398, symSize: 0x88 }
  - { offset: 0x291A6, size: 0x8, addend: 0x0, symName: __ZN5Token7getTypeEv, symObjAddr: 0x7B0C, symBinAddr: 0x100009420, symSize: 0x18 }
  - { offset: 0x291CC, size: 0x8, addend: 0x0, symName: __ZN6Parser12advanceTokenEv, symObjAddr: 0x7B24, symBinAddr: 0x100009438, symSize: 0x48 }
  - { offset: 0x291F2, size: 0x8, addend: 0x0, symName: __ZNSt3__16vectorI5TokenNS_9allocatorIS1_EEE5eraseB8ne180100ENS_11__wrap_iterIPKS1_EE, symObjAddr: 0x7B6C, symBinAddr: 0x100009480, symSize: 0x9C }
  - { offset: 0x29247, size: 0x8, addend: 0x0, symName: __ZNSt3__16vectorI5TokenNS_9allocatorIS1_EEE5beginB8ne180100Ev, symObjAddr: 0x7C08, symBinAddr: 0x10000951C, symSize: 0x30 }
  - { offset: 0x29275, size: 0x8, addend: 0x0, symName: __ZNSt3__111__wrap_iterIPK5TokenEC1B8ne180100IPS1_Li0EEERKNS0_IT_EE, symObjAddr: 0x7C38, symBinAddr: 0x10000954C, symSize: 0x34 }
  - { offset: 0x292BC, size: 0x8, addend: 0x0, symName: __ZNKSt3__16vectorI5TokenNS_9allocatorIS1_EEE6cbeginB8ne180100Ev, symObjAddr: 0x7CB4, symBinAddr: 0x1000095C8, symSize: 0x2C }
  - { offset: 0x292E2, size: 0x8, addend: 0x0, symName: __ZNSt3__16vectorI5TokenNS_9allocatorIS1_EEE17__destruct_at_endB8ne180100EPS1_, symObjAddr: 0x7CE0, symBinAddr: 0x1000095F4, symSize: 0x4C }
  - { offset: 0x29326, size: 0x8, addend: 0x0, symName: __ZNSt3__16vectorI5TokenNS_9allocatorIS1_EEE11__make_iterB8ne180100EPS1_, symObjAddr: 0x7D6C, symBinAddr: 0x100009680, symSize: 0x30 }
  - { offset: 0x2935B, size: 0x8, addend: 0x0, symName: __ZNKSt3__111__wrap_iterIPK5TokenE4baseB8ne180100Ev, symObjAddr: 0x7D9C, symBinAddr: 0x1000096B0, symSize: 0x18 }
  - { offset: 0x29381, size: 0x8, addend: 0x0, symName: __ZNKSt3__16vectorI5TokenNS_9allocatorIS1_EEE5beginB8ne180100Ev, symObjAddr: 0x7DB4, symBinAddr: 0x1000096C8, symSize: 0x30 }
  - { offset: 0x293A9, size: 0x8, addend: 0x0, symName: __ZNKSt3__16vectorI5TokenNS_9allocatorIS1_EEE11__make_iterB8ne180100EPKS1_, symObjAddr: 0x7DE4, symBinAddr: 0x1000096F8, symSize: 0x30 }
  - { offset: 0x293DE, size: 0x8, addend: 0x0, symName: __ZNSt3__111__wrap_iterIPK5TokenEC1B8ne180100ES3_, symObjAddr: 0x7E14, symBinAddr: 0x100009728, symSize: 0x34 }
  - { offset: 0x29416, size: 0x8, addend: 0x0, symName: __ZNSt3__111__wrap_iterIPK5TokenEC2B8ne180100ES3_, symObjAddr: 0x7E48, symBinAddr: 0x10000975C, symSize: 0x20 }
  - { offset: 0x2944E, size: 0x8, addend: 0x0, symName: __ZNKSt3__16vectorI5TokenNS_9allocatorIS1_EEE17__annotate_shrinkB8ne180100Em, symObjAddr: 0x7E68, symBinAddr: 0x10000977C, symSize: 0x14 }
  - { offset: 0x2948D, size: 0x8, addend: 0x0, symName: __ZNKSt3__111__move_loopINS_17_ClassicAlgPolicyEEclB8ne180100IP5TokenS5_S5_EENS_4pairIT_T1_EES7_T0_S8_, symObjAddr: 0x7FB8, symBinAddr: 0x1000098CC, symSize: 0x90 }
  - { offset: 0x294FE, size: 0x8, addend: 0x0, symName: __ZNSt3__18_IterOpsINS_17_ClassicAlgPolicyEE11__iter_moveB8ne180100IRP5TokenLi0EEEDTclsr3stdE4movedeclsr3stdE7declvalIRT_EEEEOS7_, symObjAddr: 0x8074, symBinAddr: 0x100009988, symSize: 0x28 }
  - { offset: 0x29530, size: 0x8, addend: 0x0, symName: __ZN5TokenaSEOS_, symObjAddr: 0x809C, symBinAddr: 0x1000099B0, symSize: 0x54 }
  - { offset: 0x29561, size: 0x8, addend: 0x0, symName: __ZNSt3__18_IterOpsINS_17_ClassicAlgPolicyEE25__validate_iter_referenceB8ne180100IRP5TokenEEvv, symObjAddr: 0x80F0, symBinAddr: 0x100009A04, symSize: 0x4 }
  - { offset: 0x2957F, size: 0x8, addend: 0x0, symName: __ZNSt3__111__wrap_iterIP5TokenEC1B8ne180100ES2_, symObjAddr: 0x80F4, symBinAddr: 0x100009A08, symSize: 0x34 }
  - { offset: 0x295B7, size: 0x8, addend: 0x0, symName: __ZNSt3__111__wrap_iterIP5TokenEC2B8ne180100ES2_, symObjAddr: 0x8128, symBinAddr: 0x100009A3C, symSize: 0x20 }
  - { offset: 0x295EF, size: 0x8, addend: 0x0, symName: __ZNSt3__111__wrap_iterIPK5TokenEC2B8ne180100IPS1_Li0EEERKNS0_IT_EE, symObjAddr: 0x8148, symBinAddr: 0x100009A5C, symSize: 0x3C }
  - { offset: 0x29636, size: 0x8, addend: 0x0, symName: __ZNKSt3__111__wrap_iterIP5TokenE4baseB8ne180100Ev, symObjAddr: 0x8184, symBinAddr: 0x100009A98, symSize: 0x18 }
  - { offset: 0x2965C, size: 0x8, addend: 0x0, symName: __ZN5Token8getValueEv, symObjAddr: 0x819C, symBinAddr: 0x100009AB0, symSize: 0x3C }
  - { offset: 0x29682, size: 0x8, addend: 0x0, symName: __ZN6Parser6idListER14DatalogProgram, symObjAddr: 0x81D8, symBinAddr: 0x100009AEC, symSize: 0x1D4 }
  - { offset: 0x296ED, size: 0x8, addend: 0x0, symName: __ZN9PredicateC1ENSt3__112basic_stringIcNS0_11char_traitsIcEENS0_9allocatorIcEEEE, symObjAddr: 0x83AC, symBinAddr: 0x100009CC0, symSize: 0x34 }
  - { offset: 0x29726, size: 0x8, addend: 0x0, symName: __ZN9Predicate12addparameterE9Parameter, symObjAddr: 0x83E0, symBinAddr: 0x100009CF4, symSize: 0x30 }
  - { offset: 0x2975B, size: 0x8, addend: 0x0, symName: __ZN9ParameterC1ENSt3__112basic_stringIcNS0_11char_traitsIcEENS0_9allocatorIcEEEE, symObjAddr: 0x8410, symBinAddr: 0x100009D24, symSize: 0x34 }
  - { offset: 0x29794, size: 0x8, addend: 0x0, symName: __ZN9ParameterD1Ev, symObjAddr: 0x8444, symBinAddr: 0x100009D58, symSize: 0x2C }
  - { offset: 0x297C0, size: 0x8, addend: 0x0, symName: __ZNSt3__16vectorINS_12basic_stringIcNS_11char_traitsIcEENS_9allocatorIcEEEENS4_IS6_EEE5beginB8ne180100Ev, symObjAddr: 0x8470, symBinAddr: 0x100009D84, symSize: 0x30 }
  - { offset: 0x297E8, size: 0x8, addend: 0x0, symName: __ZNSt3__16vectorINS_12basic_stringIcNS_11char_traitsIcEENS_9allocatorIcEEEENS4_IS6_EEE3endB8ne180100Ev, symObjAddr: 0x84A0, symBinAddr: 0x100009DB4, symSize: 0x30 }
  - { offset: 0x29810, size: 0x8, addend: 0x0, symName: __ZNKSt3__111__wrap_iterIPNS_12basic_stringIcNS_11char_traitsIcEENS_9allocatorIcEEEEEdeB8ne180100Ev, symObjAddr: 0x8504, symBinAddr: 0x100009E18, symSize: 0x18 }
  - { offset: 0x29836, size: 0x8, addend: 0x0, symName: __ZNSt3__111__wrap_iterIPNS_12basic_stringIcNS_11char_traitsIcEENS_9allocatorIcEEEEEppB8ne180100Ev, symObjAddr: 0x851C, symBinAddr: 0x100009E30, symSize: 0x20 }
  - { offset: 0x2985C, size: 0x8, addend: 0x0, symName: __ZNSt3__16vectorINS_12basic_stringIcNS_11char_traitsIcEENS_9allocatorIcEEEENS4_IS6_EEED1B8ne180100Ev, symObjAddr: 0x853C, symBinAddr: 0x100009E50, symSize: 0x2C }
  - { offset: 0x29886, size: 0x8, addend: 0x0, symName: __ZNSt3__16vectorINS_12basic_stringIcNS_11char_traitsIcEENS_9allocatorIcEEEENS4_IS6_EEEC1B8ne180100Ev, symObjAddr: 0x8568, symBinAddr: 0x100009E7C, symSize: 0x2C }
  - { offset: 0x298B0, size: 0x8, addend: 0x0, symName: __ZNSt3__16vectorINS_12basic_stringIcNS_11char_traitsIcEENS_9allocatorIcEEEENS4_IS6_EEE9push_backB8ne180100ERKS6_, symObjAddr: 0x8594, symBinAddr: 0x100009EA8, symSize: 0x90 }
  - { offset: 0x298F6, size: 0x8, addend: 0x0, symName: __ZNSt3__16vectorINS_12basic_stringIcNS_11char_traitsIcEENS_9allocatorIcEEEENS4_IS6_EEE6insertINS_11__wrap_iterIPS6_EELi0EEESC_NSA_IPKS6_EET_SG_, symObjAddr: 0x8624, symBinAddr: 0x100009F38, symSize: 0x84 }
  - { offset: 0x29960, size: 0x8, addend: 0x0, symName: __ZNSt3__111__wrap_iterIPKNS_12basic_stringIcNS_11char_traitsIcEENS_9allocatorIcEEEEEC1B8ne180100IPS6_Li0EEERKNS0_IT_EE, symObjAddr: 0x86A8, symBinAddr: 0x100009FBC, symSize: 0x34 }
  - { offset: 0x299A7, size: 0x8, addend: 0x0, symName: __ZNSt3__16vectorINS_12basic_stringIcNS_11char_traitsIcEENS_9allocatorIcEEEENS4_IS6_EEEC2B8ne180100Ev, symObjAddr: 0x86DC, symBinAddr: 0x100009FF0, symSize: 0x4C }
  - { offset: 0x299D1, size: 0x8, addend: 0x0, symName: __ZNSt3__117__compressed_pairIPNS_12basic_stringIcNS_11char_traitsIcEENS_9allocatorIcEEEENS4_IS6_EEEC1B8ne180100IDnNS_18__default_init_tagEEEOT_OT0_, symObjAddr: 0x8728, symBinAddr: 0x10000A03C, symSize: 0x3C }
  - { offset: 0x29A29, size: 0x8, addend: 0x0, symName: __ZNSt3__117__compressed_pairIPNS_12basic_stringIcNS_11char_traitsIcEENS_9allocatorIcEEEENS4_IS6_EEEC2B8ne180100IDnNS_18__default_init_tagEEEOT_OT0_, symObjAddr: 0x8764, symBinAddr: 0x10000A078, symSize: 0x40 }
  - { offset: 0x29A81, size: 0x8, addend: 0x0, symName: __ZNSt3__122__compressed_pair_elemIPNS_12basic_stringIcNS_11char_traitsIcEENS_9allocatorIcEEEELi0ELb0EEC2B8ne180100IDnvEEOT_, symObjAddr: 0x87A4, symBinAddr: 0x10000A0B8, symSize: 0x1C }
  - { offset: 0x29AC3, size: 0x8, addend: 0x0, symName: __ZNSt3__122__compressed_pair_elemINS_9allocatorINS_12basic_stringIcNS_11char_traitsIcEENS1_IcEEEEEELi1ELb1EEC2B8ne180100ENS_18__default_init_tagE, symObjAddr: 0x87C0, symBinAddr: 0x10000A0D4, symSize: 0x2C }
  - { offset: 0x29AF7, size: 0x8, addend: 0x0, symName: __ZNSt3__19allocatorINS_12basic_stringIcNS_11char_traitsIcEENS0_IcEEEEEC2B8ne180100Ev, symObjAddr: 0x87EC, symBinAddr: 0x10000A100, symSize: 0x2C }
  - { offset: 0x29B21, size: 0x8, addend: 0x0, symName: __ZNSt3__116__non_trivial_ifILb1ENS_9allocatorINS_12basic_stringIcNS_11char_traitsIcEENS1_IcEEEEEEEC2B8ne180100Ev, symObjAddr: 0x8818, symBinAddr: 0x10000A12C, symSize: 0x14 }
  - { offset: 0x29B4B, size: 0x8, addend: 0x0, symName: __ZNSt3__16vectorINS_12basic_stringIcNS_11char_traitsIcEENS_9allocatorIcEEEENS4_IS6_EEE9__end_capB8ne180100Ev, symObjAddr: 0x882C, symBinAddr: 0x10000A140, symSize: 0x28 }
  - { offset: 0x29B71, size: 0x8, addend: 0x0, symName: __ZNSt3__16vectorINS_12basic_stringIcNS_11char_traitsIcEENS_9allocatorIcEEEENS4_IS6_EEE22__construct_one_at_endB8ne180100IJRKS6_EEEvDpOT_, symObjAddr: 0x8854, symBinAddr: 0x10000A168, symSize: 0x90 }
  - { offset: 0x29BC0, size: 0x8, addend: 0x0, symName: __ZNSt3__16vectorINS_12basic_stringIcNS_11char_traitsIcEENS_9allocatorIcEEEENS4_IS6_EEE21__push_back_slow_pathIRKS6_EEPS6_OT_, symObjAddr: 0x88E4, symBinAddr: 0x10000A1F8, symSize: 0xE8 }
  - { offset: 0x29C1E, size: 0x8, addend: 0x0, symName: __ZNSt3__117__compressed_pairIPNS_12basic_stringIcNS_11char_traitsIcEENS_9allocatorIcEEEENS4_IS6_EEE5firstB8ne180100Ev, symObjAddr: 0x89CC, symBinAddr: 0x10000A2E0, symSize: 0x24 }
  - { offset: 0x29C44, size: 0x8, addend: 0x0, symName: __ZNSt3__122__compressed_pair_elemIPNS_12basic_stringIcNS_11char_traitsIcEENS_9allocatorIcEEEELi0ELb0EE5__getB8ne180100Ev, symObjAddr: 0x89F0, symBinAddr: 0x10000A304, symSize: 0x14 }
  - { offset: 0x29C85, size: 0x8, addend: 0x0, symName: __ZNSt3__16vectorINS_12basic_stringIcNS_11char_traitsIcEENS_9allocatorIcEEEENS4_IS6_EEE21_ConstructTransactionC1B8ne180100ERS8_m, symObjAddr: 0x8A04, symBinAddr: 0x10000A318, symSize: 0x3C }
  - { offset: 0x29CCD, size: 0x8, addend: 0x0, symName: __ZNSt3__116allocator_traitsINS_9allocatorINS_12basic_stringIcNS_11char_traitsIcEENS1_IcEEEEEEE9constructB8ne180100IS6_JRKS6_EvEEvRS7_PT_DpOT0_, symObjAddr: 0x8A40, symBinAddr: 0x10000A354, symSize: 0x34 }
  - { offset: 0x29D24, size: 0x8, addend: 0x0, symName: __ZNSt3__16vectorINS_12basic_stringIcNS_11char_traitsIcEENS_9allocatorIcEEEENS4_IS6_EEE7__allocB8ne180100Ev, symObjAddr: 0x8A74, symBinAddr: 0x10000A388, symSize: 0x28 }
  - { offset: 0x29D4A, size: 0x8, addend: 0x0, symName: __ZNSt3__16vectorINS_12basic_stringIcNS_11char_traitsIcEENS_9allocatorIcEEEENS4_IS6_EEE21_ConstructTransactionD1B8ne180100Ev, symObjAddr: 0x8AB0, symBinAddr: 0x10000A3C4, symSize: 0x2C }
  - { offset: 0x29D74, size: 0x8, addend: 0x0, symName: __ZNSt3__16vectorINS_12basic_stringIcNS_11char_traitsIcEENS_9allocatorIcEEEENS4_IS6_EEE21_ConstructTransactionC2B8ne180100ERS8_m, symObjAddr: 0x8ADC, symBinAddr: 0x10000A3F0, symSize: 0x4C }
  - { offset: 0x29DBC, size: 0x8, addend: 0x0, symName: __ZNSt3__19allocatorINS_12basic_stringIcNS_11char_traitsIcEENS0_IcEEEEE9constructB8ne180100IS5_JRKS5_EEEvPT_DpOT0_, symObjAddr: 0x8B28, symBinAddr: 0x10000A43C, symSize: 0x30 }
  - { offset: 0x29E12, size: 0x8, addend: 0x0, symName: __ZNSt3__117__compressed_pairIPNS_12basic_stringIcNS_11char_traitsIcEENS_9allocatorIcEEEENS4_IS6_EEE6secondB8ne180100Ev, symObjAddr: 0x8B58, symBinAddr: 0x10000A46C, symSize: 0x24 }
  - { offset: 0x29E38, size: 0x8, addend: 0x0, symName: __ZNSt3__122__compressed_pair_elemINS_9allocatorINS_12basic_stringIcNS_11char_traitsIcEENS1_IcEEEEEELi1ELb1EE5__getB8ne180100Ev, symObjAddr: 0x8B7C, symBinAddr: 0x10000A490, symSize: 0x14 }
  - { offset: 0x29E5E, size: 0x8, addend: 0x0, symName: __ZNSt3__16vectorINS_12basic_stringIcNS_11char_traitsIcEENS_9allocatorIcEEEENS4_IS6_EEE21_ConstructTransactionD2B8ne180100Ev, symObjAddr: 0x8B90, symBinAddr: 0x10000A4A4, symSize: 0x20 }
  - { offset: 0x29E88, size: 0x8, addend: 0x0, symName: __ZNKSt3__16vectorINS_12basic_stringIcNS_11char_traitsIcEENS_9allocatorIcEEEENS4_IS6_EEE11__recommendB8ne180100Em, symObjAddr: 0x8BB0, symBinAddr: 0x10000A4C4, symSize: 0xB4 }
  - { offset: 0x29EDD, size: 0x8, addend: 0x0, symName: __ZNKSt3__16vectorINS_12basic_stringIcNS_11char_traitsIcEENS_9allocatorIcEEEENS4_IS6_EEE4sizeB8ne180100Ev, symObjAddr: 0x8C64, symBinAddr: 0x10000A578, symSize: 0x28 }
  - { offset: 0x29F03, size: 0x8, addend: 0x0, symName: __ZNSt3__114__split_bufferINS_12basic_stringIcNS_11char_traitsIcEENS_9allocatorIcEEEERNS4_IS6_EEEC1EmmS8_, symObjAddr: 0x8C8C, symBinAddr: 0x10000A5A0, symSize: 0x44 }
  - { offset: 0x29F59, size: 0x8, addend: 0x0, symName: __ZNSt3__114__split_bufferINS_12basic_stringIcNS_11char_traitsIcEENS_9allocatorIcEEEERNS4_IS6_EEED1Ev, symObjAddr: 0x8DE0, symBinAddr: 0x10000A6F4, symSize: 0x2C }
  - { offset: 0x29F85, size: 0x8, addend: 0x0, symName: __ZNKSt3__16vectorINS_12basic_stringIcNS_11char_traitsIcEENS_9allocatorIcEEEENS4_IS6_EEE8max_sizeEv, symObjAddr: 0x8E0C, symBinAddr: 0x10000A720, symSize: 0x60 }
  - { offset: 0x29FAD, size: 0x8, addend: 0x0, symName: __ZNKSt3__16vectorINS_12basic_stringIcNS_11char_traitsIcEENS_9allocatorIcEEEENS4_IS6_EEE20__throw_length_errorB8ne180100Ev, symObjAddr: 0x8E6C, symBinAddr: 0x10000A780, symSize: 0x1C }
  - { offset: 0x29FD3, size: 0x8, addend: 0x0, symName: __ZNKSt3__16vectorINS_12basic_stringIcNS_11char_traitsIcEENS_9allocatorIcEEEENS4_IS6_EEE8capacityB8ne180100Ev, symObjAddr: 0x8E88, symBinAddr: 0x10000A79C, symSize: 0x40 }
  - { offset: 0x2A004, size: 0x8, addend: 0x0, symName: __ZNSt3__116allocator_traitsINS_9allocatorINS_12basic_stringIcNS_11char_traitsIcEENS1_IcEEEEEEE8max_sizeB8ne180100IS7_vEEmRKS7_, symObjAddr: 0x8EC8, symBinAddr: 0x10000A7DC, symSize: 0x24 }
  - { offset: 0x2A032, size: 0x8, addend: 0x0, symName: __ZNKSt3__16vectorINS_12basic_stringIcNS_11char_traitsIcEENS_9allocatorIcEEEENS4_IS6_EEE7__allocB8ne180100Ev, symObjAddr: 0x8EEC, symBinAddr: 0x10000A800, symSize: 0x28 }
  - { offset: 0x2A058, size: 0x8, addend: 0x0, symName: __ZNKSt3__19allocatorINS_12basic_stringIcNS_11char_traitsIcEENS0_IcEEEEE8max_sizeB8ne180100Ev, symObjAddr: 0x8F14, symBinAddr: 0x10000A828, symSize: 0x18 }
  - { offset: 0x2A07E, size: 0x8, addend: 0x0, symName: __ZNKSt3__117__compressed_pairIPNS_12basic_stringIcNS_11char_traitsIcEENS_9allocatorIcEEEENS4_IS6_EEE6secondB8ne180100Ev, symObjAddr: 0x8F2C, symBinAddr: 0x10000A840, symSize: 0x24 }
  - { offset: 0x2A0A4, size: 0x8, addend: 0x0, symName: __ZNKSt3__122__compressed_pair_elemINS_9allocatorINS_12basic_stringIcNS_11char_traitsIcEENS1_IcEEEEEELi1ELb1EE5__getB8ne180100Ev, symObjAddr: 0x8F50, symBinAddr: 0x10000A864, symSize: 0x14 }
  - { offset: 0x2A0CA, size: 0x8, addend: 0x0, symName: __ZNKSt3__16vectorINS_12basic_stringIcNS_11char_traitsIcEENS_9allocatorIcEEEENS4_IS6_EEE9__end_capB8ne180100Ev, symObjAddr: 0x8F64, symBinAddr: 0x10000A878, symSize: 0x28 }
  - { offset: 0x2A0F0, size: 0x8, addend: 0x0, symName: __ZNKSt3__117__compressed_pairIPNS_12basic_stringIcNS_11char_traitsIcEENS_9allocatorIcEEEENS4_IS6_EEE5firstB8ne180100Ev, symObjAddr: 0x8F8C, symBinAddr: 0x10000A8A0, symSize: 0x24 }
  - { offset: 0x2A116, size: 0x8, addend: 0x0, symName: __ZNKSt3__122__compressed_pair_elemIPNS_12basic_stringIcNS_11char_traitsIcEENS_9allocatorIcEEEELi0ELb0EE5__getB8ne180100Ev, symObjAddr: 0x8FB0, symBinAddr: 0x10000A8C4, symSize: 0x14 }
  - { offset: 0x2A13C, size: 0x8, addend: 0x0, symName: __ZNSt3__114__split_bufferINS_12basic_stringIcNS_11char_traitsIcEENS_9allocatorIcEEEERNS4_IS6_EEEC2EmmS8_, symObjAddr: 0x8FC4, symBinAddr: 0x10000A8D8, symSize: 0xE0 }
  - { offset: 0x2A1AF, size: 0x8, addend: 0x0, symName: __ZNSt3__117__compressed_pairIPNS_12basic_stringIcNS_11char_traitsIcEENS_9allocatorIcEEEERNS4_IS6_EEEC1B8ne180100IDnS9_EEOT_OT0_, symObjAddr: 0x90A4, symBinAddr: 0x10000A9B8, symSize: 0x3C }
  - { offset: 0x2A207, size: 0x8, addend: 0x0, symName: __ZNSt3__114__split_bufferINS_12basic_stringIcNS_11char_traitsIcEENS_9allocatorIcEEEERNS4_IS6_EEE7__allocB8ne180100Ev, symObjAddr: 0x9120, symBinAddr: 0x10000AA34, symSize: 0x28 }
  - { offset: 0x2A22D, size: 0x8, addend: 0x0, symName: __ZNSt3__114__split_bufferINS_12basic_stringIcNS_11char_traitsIcEENS_9allocatorIcEEEERNS4_IS6_EEE9__end_capB8ne180100Ev, symObjAddr: 0x9148, symBinAddr: 0x10000AA5C, symSize: 0x28 }
  - { offset: 0x2A253, size: 0x8, addend: 0x0, symName: __ZNSt3__117__compressed_pairIPNS_12basic_stringIcNS_11char_traitsIcEENS_9allocatorIcEEEERNS4_IS6_EEEC2B8ne180100IDnS9_EEOT_OT0_, symObjAddr: 0x9170, symBinAddr: 0x10000AA84, symSize: 0x48 }
  - { offset: 0x2A2AB, size: 0x8, addend: 0x0, symName: __ZNSt3__122__compressed_pair_elemIRNS_9allocatorINS_12basic_stringIcNS_11char_traitsIcEENS1_IcEEEEEELi1ELb0EEC2B8ne180100IS8_vEEOT_, symObjAddr: 0x91B8, symBinAddr: 0x10000AACC, symSize: 0x20 }
  - { offset: 0x2A2ED, size: 0x8, addend: 0x0, symName: __ZNSt3__19allocatorINS_12basic_stringIcNS_11char_traitsIcEENS0_IcEEEEE8allocateB8ne180100Em, symObjAddr: 0x91D8, symBinAddr: 0x10000AAEC, symSize: 0x5C }
  - { offset: 0x2A321, size: 0x8, addend: 0x0, symName: __ZNSt3__117__compressed_pairIPNS_12basic_stringIcNS_11char_traitsIcEENS_9allocatorIcEEEERNS4_IS6_EEE6secondB8ne180100Ev, symObjAddr: 0x9234, symBinAddr: 0x10000AB48, symSize: 0x28 }
  - { offset: 0x2A347, size: 0x8, addend: 0x0, symName: __ZNSt3__122__compressed_pair_elemIRNS_9allocatorINS_12basic_stringIcNS_11char_traitsIcEENS1_IcEEEEEELi1ELb0EE5__getB8ne180100Ev, symObjAddr: 0x925C, symBinAddr: 0x10000AB70, symSize: 0x18 }
  - { offset: 0x2A36D, size: 0x8, addend: 0x0, symName: __ZNSt3__117__compressed_pairIPNS_12basic_stringIcNS_11char_traitsIcEENS_9allocatorIcEEEERNS4_IS6_EEE5firstB8ne180100Ev, symObjAddr: 0x9274, symBinAddr: 0x10000AB88, symSize: 0x24 }
  - { offset: 0x2A393, size: 0x8, addend: 0x0, symName: __ZNKSt3__16vectorINS_12basic_stringIcNS_11char_traitsIcEENS_9allocatorIcEEEENS4_IS6_EEE17__annotate_deleteB8ne180100Ev, symObjAddr: 0x9298, symBinAddr: 0x10000ABAC, symSize: 0x10 }
  - { offset: 0x2A3B9, size: 0x8, addend: 0x0, symName: __ZNSt3__116reverse_iteratorIPNS_12basic_stringIcNS_11char_traitsIcEENS_9allocatorIcEEEEEC1B8ne180100ES7_, symObjAddr: 0x93D4, symBinAddr: 0x10000ACE8, symSize: 0x34 }
  - { offset: 0x2A3F1, size: 0x8, addend: 0x0, symName: __ZNKSt3__116reverse_iteratorIPNS_12basic_stringIcNS_11char_traitsIcEENS_9allocatorIcEEEEE4baseB8ne180100Ev, symObjAddr: 0x9408, symBinAddr: 0x10000AD1C, symSize: 0x18 }
  - { offset: 0x2A417, size: 0x8, addend: 0x0, symName: __ZNKSt3__16vectorINS_12basic_stringIcNS_11char_traitsIcEENS_9allocatorIcEEEENS4_IS6_EEE14__annotate_newB8ne180100Em, symObjAddr: 0x945C, symBinAddr: 0x10000AD70, symSize: 0x14 }
  - { offset: 0x2A44C, size: 0x8, addend: 0x0, symName: __ZNSt3__129_AllocatorDestroyRangeReverseINS_9allocatorINS_12basic_stringIcNS_11char_traitsIcEENS1_IcEEEEEENS_16reverse_iteratorIPS6_EEEC1B8ne180100ERS7_RSA_SD_, symObjAddr: 0x94BC, symBinAddr: 0x10000ADD0, symSize: 0x44 }
  - { offset: 0x2A4A9, size: 0x8, addend: 0x0, symName: __ZNSt3__116allocator_traitsINS_9allocatorINS_12basic_stringIcNS_11char_traitsIcEENS1_IcEEEEEEE9constructB8ne180100IS6_JS6_EvEEvRS7_PT_DpOT0_, symObjAddr: 0x9548, symBinAddr: 0x10000AE5C, symSize: 0x34 }
  - { offset: 0x2A500, size: 0x8, addend: 0x0, symName: __ZNKSt3__116reverse_iteratorIPNS_12basic_stringIcNS_11char_traitsIcEENS_9allocatorIcEEEEEdeB8ne180100Ev, symObjAddr: 0x95A0, symBinAddr: 0x10000AEB4, symSize: 0x28 }
  - { offset: 0x2A534, size: 0x8, addend: 0x0, symName: __ZNSt3__116reverse_iteratorIPNS_12basic_stringIcNS_11char_traitsIcEENS_9allocatorIcEEEEEppB8ne180100Ev, symObjAddr: 0x95C8, symBinAddr: 0x10000AEDC, symSize: 0x20 }
  - { offset: 0x2A55A, size: 0x8, addend: 0x0, symName: __ZNSt3__128__exception_guard_exceptionsINS_29_AllocatorDestroyRangeReverseINS_9allocatorINS_12basic_stringIcNS_11char_traitsIcEENS2_IcEEEEEENS_16reverse_iteratorIPS7_EEEEE10__completeB8ne180100Ev, symObjAddr: 0x95E8, symBinAddr: 0x10000AEFC, symSize: 0x1C }
  - { offset: 0x2A580, size: 0x8, addend: 0x0, symName: __ZNSt3__128__exception_guard_exceptionsINS_29_AllocatorDestroyRangeReverseINS_9allocatorINS_12basic_stringIcNS_11char_traitsIcEENS2_IcEEEEEENS_16reverse_iteratorIPS7_EEEEED1B8ne180100Ev, symObjAddr: 0x9604, symBinAddr: 0x10000AF18, symSize: 0x2C }
  - { offset: 0x2A5AA, size: 0x8, addend: 0x0, symName: __ZNSt3__128__exception_guard_exceptionsINS_29_AllocatorDestroyRangeReverseINS_9allocatorINS_12basic_stringIcNS_11char_traitsIcEENS2_IcEEEEEENS_16reverse_iteratorIPS7_EEEEEC1B8ne180100ESC_, symObjAddr: 0x9630, symBinAddr: 0x10000AF44, symSize: 0x34 }
  - { offset: 0x2A5E3, size: 0x8, addend: 0x0, symName: __ZNSt3__128__exception_guard_exceptionsINS_29_AllocatorDestroyRangeReverseINS_9allocatorINS_12basic_stringIcNS_11char_traitsIcEENS2_IcEEEEEENS_16reverse_iteratorIPS7_EEEEEC2B8ne180100ESC_, symObjAddr: 0x9664, symBinAddr: 0x10000AF78, symSize: 0x30 }
  - { offset: 0x2A61C, size: 0x8, addend: 0x0, symName: __ZNSt3__129_AllocatorDestroyRangeReverseINS_9allocatorINS_12basic_stringIcNS_11char_traitsIcEENS1_IcEEEEEENS_16reverse_iteratorIPS6_EEEC2B8ne180100ERS7_RSA_SD_, symObjAddr: 0x9694, symBinAddr: 0x10000AFA8, symSize: 0x38 }
  - { offset: 0x2A673, size: 0x8, addend: 0x0, symName: __ZNSt3__19allocatorINS_12basic_stringIcNS_11char_traitsIcEENS0_IcEEEEE9constructB8ne180100IS5_JS5_EEEvPT_DpOT0_, symObjAddr: 0x96CC, symBinAddr: 0x10000AFE0, symSize: 0x30 }
  - { offset: 0x2A6CF, size: 0x8, addend: 0x0, symName: __ZNSt3__119__to_address_helperINS_16reverse_iteratorIPNS_12basic_stringIcNS_11char_traitsIcEENS_9allocatorIcEEEEEEvE6__callB8ne180100ERKS9_, symObjAddr: 0x96FC, symBinAddr: 0x10000B010, symSize: 0x38 }
  - { offset: 0x2A6F2, size: 0x8, addend: 0x0, symName: __ZNKSt3__116reverse_iteratorIPNS_12basic_stringIcNS_11char_traitsIcEENS_9allocatorIcEEEEEptB8ne180100Ev, symObjAddr: 0x9734, symBinAddr: 0x10000B048, symSize: 0x24 }
  - { offset: 0x2A718, size: 0x8, addend: 0x0, symName: __ZNSt3__128__exception_guard_exceptionsINS_29_AllocatorDestroyRangeReverseINS_9allocatorINS_12basic_stringIcNS_11char_traitsIcEENS2_IcEEEEEENS_16reverse_iteratorIPS7_EEEEED2B8ne180100Ev, symObjAddr: 0x9758, symBinAddr: 0x10000B06C, symSize: 0x50 }
  - { offset: 0x2A742, size: 0x8, addend: 0x0, symName: __ZNKSt3__129_AllocatorDestroyRangeReverseINS_9allocatorINS_12basic_stringIcNS_11char_traitsIcEENS1_IcEEEEEENS_16reverse_iteratorIPS6_EEEclB8ne180100Ev, symObjAddr: 0x97A8, symBinAddr: 0x10000B0BC, symSize: 0xB4 }
  - { offset: 0x2A769, size: 0x8, addend: 0x0, symName: __ZNSt3__116reverse_iteratorINS0_IPNS_12basic_stringIcNS_11char_traitsIcEENS_9allocatorIcEEEEEEEC1B8ne180100ES8_, symObjAddr: 0x98CC, symBinAddr: 0x10000B1E0, symSize: 0x3C }
  - { offset: 0x2A7A1, size: 0x8, addend: 0x0, symName: __ZNSt3__116allocator_traitsINS_9allocatorINS_12basic_stringIcNS_11char_traitsIcEENS1_IcEEEEEEE7destroyB8ne180100IS6_vEEvRS7_PT_, symObjAddr: 0x9968, symBinAddr: 0x10000B27C, symSize: 0x2C }
  - { offset: 0x2A7DE, size: 0x8, addend: 0x0, symName: __ZNSt3__116reverse_iteratorINS0_IPNS_12basic_stringIcNS_11char_traitsIcEENS_9allocatorIcEEEEEEEppB8ne180100Ev, symObjAddr: 0x99B8, symBinAddr: 0x10000B2CC, symSize: 0x30 }
  - { offset: 0x2A804, size: 0x8, addend: 0x0, symName: __ZNKSt3__116reverse_iteratorINS0_IPNS_12basic_stringIcNS_11char_traitsIcEENS_9allocatorIcEEEEEEE4baseB8ne180100Ev, symObjAddr: 0x99E8, symBinAddr: 0x10000B2FC, symSize: 0x24 }
  - { offset: 0x2A82A, size: 0x8, addend: 0x0, symName: __ZNSt3__19allocatorINS_12basic_stringIcNS_11char_traitsIcEENS0_IcEEEEE7destroyB8ne180100EPS5_, symObjAddr: 0x9A0C, symBinAddr: 0x10000B320, symSize: 0x28 }
  - { offset: 0x2A864, size: 0x8, addend: 0x0, symName: __ZNSt3__119__to_address_helperINS_16reverse_iteratorINS1_IPNS_12basic_stringIcNS_11char_traitsIcEENS_9allocatorIcEEEEEEEEvE6__callB8ne180100ERKSA_, symObjAddr: 0x9A34, symBinAddr: 0x10000B348, symSize: 0x38 }
  - { offset: 0x2A887, size: 0x8, addend: 0x0, symName: __ZNKSt3__116reverse_iteratorINS0_IPNS_12basic_stringIcNS_11char_traitsIcEENS_9allocatorIcEEEEEEEptB8ne180100Ev, symObjAddr: 0x9A6C, symBinAddr: 0x10000B380, symSize: 0x24 }
  - { offset: 0x2A8AD, size: 0x8, addend: 0x0, symName: __ZNKSt3__116reverse_iteratorINS0_IPNS_12basic_stringIcNS_11char_traitsIcEENS_9allocatorIcEEEEEEEdeB8ne180100Ev, symObjAddr: 0x9A90, symBinAddr: 0x10000B3A4, symSize: 0x34 }
  - { offset: 0x2A8E1, size: 0x8, addend: 0x0, symName: __ZNSt3__116reverse_iteratorIPNS_12basic_stringIcNS_11char_traitsIcEENS_9allocatorIcEEEEEmmB8ne180100Ev, symObjAddr: 0x9AC4, symBinAddr: 0x10000B3D8, symSize: 0x20 }
  - { offset: 0x2A907, size: 0x8, addend: 0x0, symName: __ZNSt3__116reverse_iteratorINS0_IPNS_12basic_stringIcNS_11char_traitsIcEENS_9allocatorIcEEEEEEEC2B8ne180100ES8_, symObjAddr: 0x9AE4, symBinAddr: 0x10000B3F8, symSize: 0x2C }
  - { offset: 0x2A93F, size: 0x8, addend: 0x0, symName: __ZNSt3__116reverse_iteratorIPNS_12basic_stringIcNS_11char_traitsIcEENS_9allocatorIcEEEEEC2B8ne180100ES7_, symObjAddr: 0x9B10, symBinAddr: 0x10000B424, symSize: 0x28 }
  - { offset: 0x2A977, size: 0x8, addend: 0x0, symName: __ZNSt3__114__split_bufferINS_12basic_stringIcNS_11char_traitsIcEENS_9allocatorIcEEEERNS4_IS6_EEED2Ev, symObjAddr: 0x9B38, symBinAddr: 0x10000B44C, symSize: 0x8C }
  - { offset: 0x2A9A3, size: 0x8, addend: 0x0, symName: __ZNSt3__114__split_bufferINS_12basic_stringIcNS_11char_traitsIcEENS_9allocatorIcEEEERNS4_IS6_EEE5clearB8ne180100Ev, symObjAddr: 0x9BC4, symBinAddr: 0x10000B4D8, symSize: 0x28 }
  - { offset: 0x2A9C9, size: 0x8, addend: 0x0, symName: __ZNSt3__116allocator_traitsINS_9allocatorINS_12basic_stringIcNS_11char_traitsIcEENS1_IcEEEEEEE10deallocateB8ne180100ERS7_PS6_m, symObjAddr: 0x9BEC, symBinAddr: 0x10000B500, symSize: 0x34 }
  - { offset: 0x2AA0B, size: 0x8, addend: 0x0, symName: __ZNKSt3__114__split_bufferINS_12basic_stringIcNS_11char_traitsIcEENS_9allocatorIcEEEERNS4_IS6_EEE8capacityB8ne180100Ev, symObjAddr: 0x9C20, symBinAddr: 0x10000B534, symSize: 0x40 }
  - { offset: 0x2AA31, size: 0x8, addend: 0x0, symName: __ZNSt3__114__split_bufferINS_12basic_stringIcNS_11char_traitsIcEENS_9allocatorIcEEEERNS4_IS6_EEE17__destruct_at_endB8ne180100EPS6_, symObjAddr: 0x9C60, symBinAddr: 0x10000B574, symSize: 0x2C }
  - { offset: 0x2AA65, size: 0x8, addend: 0x0, symName: __ZNSt3__114__split_bufferINS_12basic_stringIcNS_11char_traitsIcEENS_9allocatorIcEEEERNS4_IS6_EEE17__destruct_at_endB8ne180100EPS6_NS_17integral_constantIbLb0EEE, symObjAddr: 0x9C8C, symBinAddr: 0x10000B5A0, symSize: 0x80 }
  - { offset: 0x2AAA5, size: 0x8, addend: 0x0, symName: __ZNSt3__19allocatorINS_12basic_stringIcNS_11char_traitsIcEENS0_IcEEEEE10deallocateB8ne180100EPS5_m, symObjAddr: 0x9D0C, symBinAddr: 0x10000B620, symSize: 0x44 }
  - { offset: 0x2AAE7, size: 0x8, addend: 0x0, symName: __ZNKSt3__114__split_bufferINS_12basic_stringIcNS_11char_traitsIcEENS_9allocatorIcEEEERNS4_IS6_EEE9__end_capB8ne180100Ev, symObjAddr: 0x9D50, symBinAddr: 0x10000B664, symSize: 0x28 }
  - { offset: 0x2AB0D, size: 0x8, addend: 0x0, symName: __ZNKSt3__117__compressed_pairIPNS_12basic_stringIcNS_11char_traitsIcEENS_9allocatorIcEEEERNS4_IS6_EEE5firstB8ne180100Ev, symObjAddr: 0x9D78, symBinAddr: 0x10000B68C, symSize: 0x24 }
  - { offset: 0x2AB33, size: 0x8, addend: 0x0, symName: __ZNSt3__16vectorINS_12basic_stringIcNS_11char_traitsIcEENS_9allocatorIcEEEENS4_IS6_EEE18__insert_with_sizeB8ne180100INS_11__wrap_iterIPS6_EESC_EESC_NSA_IPKS6_EET_T0_l, symObjAddr: 0x9D9C, symBinAddr: 0x10000B6B0, symSize: 0x320 }
  - { offset: 0x2AC5B, size: 0x8, addend: 0x0, symName: __ZNSt3__16vectorINS_12basic_stringIcNS_11char_traitsIcEENS_9allocatorIcEEEENS4_IS6_EEE18__construct_at_endINS_11__wrap_iterIPS6_EESC_EEvT_T0_m, symObjAddr: 0xA1B4, symBinAddr: 0x10000BAC8, symSize: 0x9C }
  - { offset: 0x2ACD1, size: 0x8, addend: 0x0, symName: __ZNSt3__16vectorINS_12basic_stringIcNS_11char_traitsIcEENS_9allocatorIcEEEENS4_IS6_EEE12__move_rangeEPS6_S9_S9_, symObjAddr: 0xA250, symBinAddr: 0x10000BB64, symSize: 0x13C }
  - { offset: 0x2AD8D, size: 0x8, addend: 0x0, symName: __ZNSt3__114__split_bufferINS_12basic_stringIcNS_11char_traitsIcEENS_9allocatorIcEEEERNS4_IS6_EEE28__construct_at_end_with_sizeINS_11__wrap_iterIPS6_EEEEvT_m, symObjAddr: 0xA3DC, symBinAddr: 0x10000BCF0, symSize: 0xD0 }
  - { offset: 0x2ADE9, size: 0x8, addend: 0x0, symName: __ZNSt3__16vectorINS_12basic_stringIcNS_11char_traitsIcEENS_9allocatorIcEEEENS4_IS6_EEE11__make_iterB8ne180100EPS6_, symObjAddr: 0xA5F8, symBinAddr: 0x10000BF0C, symSize: 0x30 }
  - { offset: 0x2AE1E, size: 0x8, addend: 0x0, symName: __ZNKSt3__111__wrap_iterIPKNS_12basic_stringIcNS_11char_traitsIcEENS_9allocatorIcEEEEE4baseB8ne180100Ev, symObjAddr: 0xA628, symBinAddr: 0x10000BF3C, symSize: 0x18 }
  - { offset: 0x2AE44, size: 0x8, addend: 0x0, symName: __ZNKSt3__111__wrap_iterIPNS_12basic_stringIcNS_11char_traitsIcEENS_9allocatorIcEEEEE4baseB8ne180100Ev, symObjAddr: 0xA640, symBinAddr: 0x10000BF54, symSize: 0x18 }
  - { offset: 0x2AE6A, size: 0x8, addend: 0x0, symName: __ZNSt3__111__wrap_iterIPNS_12basic_stringIcNS_11char_traitsIcEENS_9allocatorIcEEEEEpLB8ne180100El, symObjAddr: 0xA698, symBinAddr: 0x10000BFAC, symSize: 0x30 }
  - { offset: 0x2AEC0, size: 0x8, addend: 0x0, symName: __ZNSt3__14pairIPNS_12basic_stringIcNS_11char_traitsIcEENS_9allocatorIcEEEES7_EC1B8ne180100IS7_S7_Li0EEEOT_OT0_, symObjAddr: 0xA980, symBinAddr: 0x10000C294, symSize: 0x3C }
  - { offset: 0x2AF1E, size: 0x8, addend: 0x0, symName: __ZNSt3__14pairIPNS_12basic_stringIcNS_11char_traitsIcEENS_9allocatorIcEEEES7_EC2B8ne180100IS7_S7_Li0EEEOT_OT0_, symObjAddr: 0xA9BC, symBinAddr: 0x10000C2D0, symSize: 0x34 }
  - { offset: 0x2AF7C, size: 0x8, addend: 0x0, symName: __ZNSt3__118__unwrap_iter_implINS_11__wrap_iterIPNS_12basic_stringIcNS_11char_traitsIcEENS_9allocatorIcEEEEEELb1EE8__unwrapB8ne180100ES9_, symObjAddr: 0xA9F0, symBinAddr: 0x10000C304, symSize: 0x28 }
  - { offset: 0x2AFA4, size: 0x8, addend: 0x0, symName: __ZNSt3__119__to_address_helperINS_11__wrap_iterIPNS_12basic_stringIcNS_11char_traitsIcEENS_9allocatorIcEEEEEEvE6__callB8ne180100ERKS9_, symObjAddr: 0xAA3C, symBinAddr: 0x10000C350, symSize: 0x30 }
  - { offset: 0x2AFC7, size: 0x8, addend: 0x0, symName: __ZNSt3__114pointer_traitsINS_11__wrap_iterIPNS_12basic_stringIcNS_11char_traitsIcEENS_9allocatorIcEEEEEEE10to_addressB8ne180100ES9_, symObjAddr: 0xAA6C, symBinAddr: 0x10000C380, symSize: 0x2C }
  - { offset: 0x2AFEA, size: 0x8, addend: 0x0, symName: __ZNSt3__129_AllocatorDestroyRangeReverseINS_9allocatorINS_12basic_stringIcNS_11char_traitsIcEENS1_IcEEEEEEPS6_EC1B8ne180100ERS7_RS8_SB_, symObjAddr: 0xAAE4, symBinAddr: 0x10000C3F8, symSize: 0x44 }
  - { offset: 0x2B041, size: 0x8, addend: 0x0, symName: __ZNSt3__116allocator_traitsINS_9allocatorINS_12basic_stringIcNS_11char_traitsIcEENS1_IcEEEEEEE9constructB8ne180100IS6_JRS6_EvEEvRS7_PT_DpOT0_, symObjAddr: 0xAB28, symBinAddr: 0x10000C43C, symSize: 0x34 }
  - { offset: 0x2B098, size: 0x8, addend: 0x0, symName: __ZNSt3__128__exception_guard_exceptionsINS_29_AllocatorDestroyRangeReverseINS_9allocatorINS_12basic_stringIcNS_11char_traitsIcEENS2_IcEEEEEEPS7_EEE10__completeB8ne180100Ev, symObjAddr: 0xAB5C, symBinAddr: 0x10000C470, symSize: 0x1C }
  - { offset: 0x2B0BE, size: 0x8, addend: 0x0, symName: __ZNSt3__128__exception_guard_exceptionsINS_29_AllocatorDestroyRangeReverseINS_9allocatorINS_12basic_stringIcNS_11char_traitsIcEENS2_IcEEEEEEPS7_EEED1B8ne180100Ev, symObjAddr: 0xAB78, symBinAddr: 0x10000C48C, symSize: 0x2C }
  - { offset: 0x2B0E8, size: 0x8, addend: 0x0, symName: __ZNSt3__128__exception_guard_exceptionsINS_29_AllocatorDestroyRangeReverseINS_9allocatorINS_12basic_stringIcNS_11char_traitsIcEENS2_IcEEEEEEPS7_EEEC1B8ne180100ESA_, symObjAddr: 0xABA4, symBinAddr: 0x10000C4B8, symSize: 0x34 }
  - { offset: 0x2B121, size: 0x8, addend: 0x0, symName: __ZNSt3__128__exception_guard_exceptionsINS_29_AllocatorDestroyRangeReverseINS_9allocatorINS_12basic_stringIcNS_11char_traitsIcEENS2_IcEEEEEEPS7_EEEC2B8ne180100ESA_, symObjAddr: 0xABD8, symBinAddr: 0x10000C4EC, symSize: 0x30 }
  - { offset: 0x2B15A, size: 0x8, addend: 0x0, symName: __ZNSt3__129_AllocatorDestroyRangeReverseINS_9allocatorINS_12basic_stringIcNS_11char_traitsIcEENS1_IcEEEEEEPS6_EC2B8ne180100ERS7_RS8_SB_, symObjAddr: 0xAC08, symBinAddr: 0x10000C51C, symSize: 0x38 }
  - { offset: 0x2B1B1, size: 0x8, addend: 0x0, symName: __ZNSt3__19allocatorINS_12basic_stringIcNS_11char_traitsIcEENS0_IcEEEEE9constructB8ne180100IS5_JRS5_EEEvPT_DpOT0_, symObjAddr: 0xAC40, symBinAddr: 0x10000C554, symSize: 0x30 }
  - { offset: 0x2B207, size: 0x8, addend: 0x0, symName: __ZNSt3__128__exception_guard_exceptionsINS_29_AllocatorDestroyRangeReverseINS_9allocatorINS_12basic_stringIcNS_11char_traitsIcEENS2_IcEEEEEEPS7_EEED2B8ne180100Ev, symObjAddr: 0xAC70, symBinAddr: 0x10000C584, symSize: 0x50 }
  - { offset: 0x2B231, size: 0x8, addend: 0x0, symName: __ZNKSt3__129_AllocatorDestroyRangeReverseINS_9allocatorINS_12basic_stringIcNS_11char_traitsIcEENS1_IcEEEEEEPS6_EclB8ne180100Ev, symObjAddr: 0xACC0, symBinAddr: 0x10000C5D4, symSize: 0x68 }
  - { offset: 0x2B257, size: 0x8, addend: 0x0, symName: __ZNSt3__118__unwrap_iter_implIPNS_12basic_stringIcNS_11char_traitsIcEENS_9allocatorIcEEEELb1EE8__unwrapB8ne180100ES7_, symObjAddr: 0xAD98, symBinAddr: 0x10000C6AC, symSize: 0x24 }
  - { offset: 0x2B27A, size: 0x8, addend: 0x0, symName: __ZNSt3__118__unwrap_iter_implIPNS_12basic_stringIcNS_11char_traitsIcEENS_9allocatorIcEEEELb1EE8__rewrapB8ne180100ES7_S7_, symObjAddr: 0xADBC, symBinAddr: 0x10000C6D0, symSize: 0x58 }
  - { offset: 0x2B2B5, size: 0x8, addend: 0x0, symName: __ZNKSt3__120__move_backward_loopINS_17_ClassicAlgPolicyEEclB8ne180100IPNS_12basic_stringIcNS_11char_traitsIcEENS_9allocatorIcEEEESA_SA_EENS_4pairIT_T1_EESC_T0_SD_, symObjAddr: 0xAFF0, symBinAddr: 0x10000C904, symSize: 0xA4 }
  - { offset: 0x2B33C, size: 0x8, addend: 0x0, symName: __ZNSt3__18_IterOpsINS_17_ClassicAlgPolicyEE4nextB8ne180100IPNS_12basic_stringIcNS_11char_traitsIcEENS_9allocatorIcEEEEEET_SB_SB_, symObjAddr: 0xB0C0, symBinAddr: 0x10000C9D4, symSize: 0x18 }
  - { offset: 0x2B378, size: 0x8, addend: 0x0, symName: __ZNSt3__18_IterOpsINS_17_ClassicAlgPolicyEE11__iter_moveB8ne180100IRPNS_12basic_stringIcNS_11char_traitsIcEENS_9allocatorIcEEEELi0EEEDTclsr3stdE4movedeclsr3stdE7declvalIRT_EEEEOSC_, symObjAddr: 0xB0D8, symBinAddr: 0x10000C9EC, symSize: 0x28 }
  - { offset: 0x2B3AA, size: 0x8, addend: 0x0, symName: __ZNSt3__18_IterOpsINS_17_ClassicAlgPolicyEE25__validate_iter_referenceB8ne180100IRPNS_12basic_stringIcNS_11char_traitsIcEENS_9allocatorIcEEEEEEvv, symObjAddr: 0xB100, symBinAddr: 0x10000CA14, symSize: 0x4 }
  - { offset: 0x2B3D2, size: 0x8, addend: 0x0, symName: __ZNKSt3__111__copy_loopINS_17_ClassicAlgPolicyEEclB8ne180100IPNS_12basic_stringIcNS_11char_traitsIcEENS_9allocatorIcEEEESA_SA_EENS_4pairIT_T1_EESC_T0_SD_, symObjAddr: 0xB278, symBinAddr: 0x10000CB8C, symSize: 0x88 }
  - { offset: 0x2B45F, size: 0x8, addend: 0x0, symName: __ZNSt3__14pairINS_11__wrap_iterIPNS_12basic_stringIcNS_11char_traitsIcEENS_9allocatorIcEEEEEES8_EC1B8ne180100IS9_S8_Li0EEEOT_OT0_, symObjAddr: 0xB374, symBinAddr: 0x10000CC88, symSize: 0x3C }
  - { offset: 0x2B4BD, size: 0x8, addend: 0x0, symName: __ZNSt3__14pairINS_11__wrap_iterIPNS_12basic_stringIcNS_11char_traitsIcEENS_9allocatorIcEEEEEES8_EC2B8ne180100IS9_S8_Li0EEEOT_OT0_, symObjAddr: 0xB3B0, symBinAddr: 0x10000CCC4, symSize: 0x34 }
  - { offset: 0x2B51B, size: 0x8, addend: 0x0, symName: __ZNSt3__118__unwrap_iter_implINS_11__wrap_iterIPNS_12basic_stringIcNS_11char_traitsIcEENS_9allocatorIcEEEEEELb1EE8__rewrapB8ne180100ES9_S8_, symObjAddr: 0xB430, symBinAddr: 0x10000CD44, symSize: 0x5C }
  - { offset: 0x2B54C, size: 0x8, addend: 0x0, symName: __ZNKSt3__111__wrap_iterIPNS_12basic_stringIcNS_11char_traitsIcEENS_9allocatorIcEEEEEplB8ne180100El, symObjAddr: 0xB48C, symBinAddr: 0x10000CDA0, symSize: 0x3C }
  - { offset: 0x2B598, size: 0x8, addend: 0x0, symName: __ZNSt3__114__split_bufferINS_12basic_stringIcNS_11char_traitsIcEENS_9allocatorIcEEEERNS4_IS6_EEE21_ConstructTransactionC1B8ne180100EPPS6_m, symObjAddr: 0xB4C8, symBinAddr: 0x10000CDDC, symSize: 0x3C }
  - { offset: 0x2B5DE, size: 0x8, addend: 0x0, symName: __ZNSt3__114__split_bufferINS_12basic_stringIcNS_11char_traitsIcEENS_9allocatorIcEEEERNS4_IS6_EEE21_ConstructTransactionD1B8ne180100Ev, symObjAddr: 0xB504, symBinAddr: 0x10000CE18, symSize: 0x2C }
  - { offset: 0x2B608, size: 0x8, addend: 0x0, symName: __ZNSt3__114__split_bufferINS_12basic_stringIcNS_11char_traitsIcEENS_9allocatorIcEEEERNS4_IS6_EEE21_ConstructTransactionC2B8ne180100EPPS6_m, symObjAddr: 0xB530, symBinAddr: 0x10000CE44, symSize: 0x4C }
  - { offset: 0x2B64E, size: 0x8, addend: 0x0, symName: __ZNSt3__114__split_bufferINS_12basic_stringIcNS_11char_traitsIcEENS_9allocatorIcEEEERNS4_IS6_EEE21_ConstructTransactionD2B8ne180100Ev, symObjAddr: 0xB57C, symBinAddr: 0x10000CE90, symSize: 0x20 }
  - { offset: 0x2B678, size: 0x8, addend: 0x0, symName: __ZNSt3__111__wrap_iterIPNS_12basic_stringIcNS_11char_traitsIcEENS_9allocatorIcEEEEEC1B8ne180100ES7_, symObjAddr: 0xB690, symBinAddr: 0x10000CFA4, symSize: 0x34 }
  - { offset: 0x2B6B0, size: 0x8, addend: 0x0, symName: __ZNSt3__111__wrap_iterIPNS_12basic_stringIcNS_11char_traitsIcEENS_9allocatorIcEEEEEC2B8ne180100ES7_, symObjAddr: 0xB6C4, symBinAddr: 0x10000CFD8, symSize: 0x20 }
  - { offset: 0x2B6E8, size: 0x8, addend: 0x0, symName: __ZNSt3__111__wrap_iterIPKNS_12basic_stringIcNS_11char_traitsIcEENS_9allocatorIcEEEEEC2B8ne180100IPS6_Li0EEERKNS0_IT_EE, symObjAddr: 0xB75C, symBinAddr: 0x10000D070, symSize: 0x3C }
  - { offset: 0x2B72F, size: 0x8, addend: 0x0, symName: __ZN9PredicateC2ENSt3__112basic_stringIcNS0_11char_traitsIcEENS0_9allocatorIcEEEE, symObjAddr: 0xB798, symBinAddr: 0x10000D0AC, symSize: 0x40 }
  - { offset: 0x2B768, size: 0x8, addend: 0x0, symName: __ZNSt3__16vectorI9ParameterNS_9allocatorIS1_EEEC1B8ne180100Ev, symObjAddr: 0xB7D8, symBinAddr: 0x10000D0EC, symSize: 0x2C }
  - { offset: 0x2B792, size: 0x8, addend: 0x0, symName: __ZNSt3__16vectorI9ParameterNS_9allocatorIS1_EEEC2B8ne180100Ev, symObjAddr: 0xB804, symBinAddr: 0x10000D118, symSize: 0x4C }
  - { offset: 0x2B7BC, size: 0x8, addend: 0x0, symName: __ZNSt3__117__compressed_pairIP9ParameterNS_9allocatorIS1_EEEC1B8ne180100IDnNS_18__default_init_tagEEEOT_OT0_, symObjAddr: 0xB850, symBinAddr: 0x10000D164, symSize: 0x3C }
  - { offset: 0x2B814, size: 0x8, addend: 0x0, symName: __ZNSt3__117__compressed_pairIP9ParameterNS_9allocatorIS1_EEEC2B8ne180100IDnNS_18__default_init_tagEEEOT_OT0_, symObjAddr: 0xB88C, symBinAddr: 0x10000D1A0, symSize: 0x40 }
  - { offset: 0x2B86C, size: 0x8, addend: 0x0, symName: __ZNSt3__122__compressed_pair_elemIP9ParameterLi0ELb0EEC2B8ne180100IDnvEEOT_, symObjAddr: 0xB8CC, symBinAddr: 0x10000D1E0, symSize: 0x1C }
  - { offset: 0x2B8AE, size: 0x8, addend: 0x0, symName: __ZNSt3__122__compressed_pair_elemINS_9allocatorI9ParameterEELi1ELb1EEC2B8ne180100ENS_18__default_init_tagE, symObjAddr: 0xB8E8, symBinAddr: 0x10000D1FC, symSize: 0x2C }
  - { offset: 0x2B8E2, size: 0x8, addend: 0x0, symName: __ZNSt3__19allocatorI9ParameterEC2B8ne180100Ev, symObjAddr: 0xB914, symBinAddr: 0x10000D228, symSize: 0x2C }
  - { offset: 0x2B90C, size: 0x8, addend: 0x0, symName: __ZNSt3__116__non_trivial_ifILb1ENS_9allocatorI9ParameterEEEC2B8ne180100Ev, symObjAddr: 0xB940, symBinAddr: 0x10000D254, symSize: 0x14 }
  - { offset: 0x2B936, size: 0x8, addend: 0x0, symName: __ZNSt3__16vectorI9ParameterNS_9allocatorIS1_EEE9push_backB8ne180100ERKS1_, symObjAddr: 0xB954, symBinAddr: 0x10000D268, symSize: 0x90 }
  - { offset: 0x2B97C, size: 0x8, addend: 0x0, symName: __ZNSt3__16vectorI9ParameterNS_9allocatorIS1_EEE9__end_capB8ne180100Ev, symObjAddr: 0xB9E4, symBinAddr: 0x10000D2F8, symSize: 0x28 }
  - { offset: 0x2B9A2, size: 0x8, addend: 0x0, symName: __ZNSt3__16vectorI9ParameterNS_9allocatorIS1_EEE22__construct_one_at_endB8ne180100IJRKS1_EEEvDpOT_, symObjAddr: 0xBA0C, symBinAddr: 0x10000D320, symSize: 0x90 }
  - { offset: 0x2B9F1, size: 0x8, addend: 0x0, symName: __ZNSt3__16vectorI9ParameterNS_9allocatorIS1_EEE21__push_back_slow_pathIRKS1_EEPS1_OT_, symObjAddr: 0xBA9C, symBinAddr: 0x10000D3B0, symSize: 0xE8 }
  - { offset: 0x2BA4F, size: 0x8, addend: 0x0, symName: __ZNSt3__117__compressed_pairIP9ParameterNS_9allocatorIS1_EEE5firstB8ne180100Ev, symObjAddr: 0xBB84, symBinAddr: 0x10000D498, symSize: 0x24 }
  - { offset: 0x2BA75, size: 0x8, addend: 0x0, symName: __ZNSt3__122__compressed_pair_elemIP9ParameterLi0ELb0EE5__getB8ne180100Ev, symObjAddr: 0xBBA8, symBinAddr: 0x10000D4BC, symSize: 0x14 }
  - { offset: 0x2BAB6, size: 0x8, addend: 0x0, symName: __ZNSt3__16vectorI9ParameterNS_9allocatorIS1_EEE21_ConstructTransactionC1B8ne180100ERS4_m, symObjAddr: 0xBBBC, symBinAddr: 0x10000D4D0, symSize: 0x3C }
  - { offset: 0x2BAFE, size: 0x8, addend: 0x0, symName: __ZNSt3__116allocator_traitsINS_9allocatorI9ParameterEEE9constructB8ne180100IS2_JRKS2_EvEEvRS3_PT_DpOT0_, symObjAddr: 0xBBF8, symBinAddr: 0x10000D50C, symSize: 0x34 }
  - { offset: 0x2BB55, size: 0x8, addend: 0x0, symName: __ZNSt3__16vectorI9ParameterNS_9allocatorIS1_EEE7__allocB8ne180100Ev, symObjAddr: 0xBC2C, symBinAddr: 0x10000D540, symSize: 0x28 }
  - { offset: 0x2BB7B, size: 0x8, addend: 0x0, symName: __ZNSt3__16vectorI9ParameterNS_9allocatorIS1_EEE21_ConstructTransactionD1B8ne180100Ev, symObjAddr: 0xBC68, symBinAddr: 0x10000D57C, symSize: 0x2C }
  - { offset: 0x2BBA5, size: 0x8, addend: 0x0, symName: __ZNSt3__16vectorI9ParameterNS_9allocatorIS1_EEE21_ConstructTransactionC2B8ne180100ERS4_m, symObjAddr: 0xBC94, symBinAddr: 0x10000D5A8, symSize: 0x4C }
  - { offset: 0x2BBED, size: 0x8, addend: 0x0, symName: __ZNSt3__19allocatorI9ParameterE9constructB8ne180100IS1_JRKS1_EEEvPT_DpOT0_, symObjAddr: 0xBCE0, symBinAddr: 0x10000D5F4, symSize: 0x30 }
  - { offset: 0x2BC43, size: 0x8, addend: 0x0, symName: __ZN9ParameterC1ERKS_, symObjAddr: 0xBD10, symBinAddr: 0x10000D624, symSize: 0x34 }
  - { offset: 0x2BC78, size: 0x8, addend: 0x0, symName: __ZN9ParameterC2ERKS_, symObjAddr: 0xBD44, symBinAddr: 0x10000D658, symSize: 0x34 }
  - { offset: 0x2BCAD, size: 0x8, addend: 0x0, symName: __ZNSt3__117__compressed_pairIP9ParameterNS_9allocatorIS1_EEE6secondB8ne180100Ev, symObjAddr: 0xBD78, symBinAddr: 0x10000D68C, symSize: 0x24 }
  - { offset: 0x2BCD3, size: 0x8, addend: 0x0, symName: __ZNSt3__122__compressed_pair_elemINS_9allocatorI9ParameterEELi1ELb1EE5__getB8ne180100Ev, symObjAddr: 0xBD9C, symBinAddr: 0x10000D6B0, symSize: 0x14 }
  - { offset: 0x2BCF9, size: 0x8, addend: 0x0, symName: __ZNSt3__16vectorI9ParameterNS_9allocatorIS1_EEE21_ConstructTransactionD2B8ne180100Ev, symObjAddr: 0xBDB0, symBinAddr: 0x10000D6C4, symSize: 0x20 }
  - { offset: 0x2BD23, size: 0x8, addend: 0x0, symName: __ZNKSt3__16vectorI9ParameterNS_9allocatorIS1_EEE11__recommendB8ne180100Em, symObjAddr: 0xBDD0, symBinAddr: 0x10000D6E4, symSize: 0xB4 }
  - { offset: 0x2BD78, size: 0x8, addend: 0x0, symName: __ZNKSt3__16vectorI9ParameterNS_9allocatorIS1_EEE4sizeB8ne180100Ev, symObjAddr: 0xBE84, symBinAddr: 0x10000D798, symSize: 0x28 }
  - { offset: 0x2BD9E, size: 0x8, addend: 0x0, symName: __ZNSt3__114__split_bufferI9ParameterRNS_9allocatorIS1_EEEC1EmmS4_, symObjAddr: 0xBEAC, symBinAddr: 0x10000D7C0, symSize: 0x44 }
  - { offset: 0x2BDF4, size: 0x8, addend: 0x0, symName: __ZNSt3__114__split_bufferI9ParameterRNS_9allocatorIS1_EEED1Ev, symObjAddr: 0xC000, symBinAddr: 0x10000D914, symSize: 0x2C }
  - { offset: 0x2BE20, size: 0x8, addend: 0x0, symName: __ZNKSt3__16vectorI9ParameterNS_9allocatorIS1_EEE8max_sizeEv, symObjAddr: 0xC02C, symBinAddr: 0x10000D940, symSize: 0x60 }
  - { offset: 0x2BE48, size: 0x8, addend: 0x0, symName: __ZNKSt3__16vectorI9ParameterNS_9allocatorIS1_EEE20__throw_length_errorB8ne180100Ev, symObjAddr: 0xC08C, symBinAddr: 0x10000D9A0, symSize: 0x1C }
  - { offset: 0x2BE6E, size: 0x8, addend: 0x0, symName: __ZNKSt3__16vectorI9ParameterNS_9allocatorIS1_EEE8capacityB8ne180100Ev, symObjAddr: 0xC0A8, symBinAddr: 0x10000D9BC, symSize: 0x40 }
  - { offset: 0x2BE9F, size: 0x8, addend: 0x0, symName: __ZNSt3__116allocator_traitsINS_9allocatorI9ParameterEEE8max_sizeB8ne180100IS3_vEEmRKS3_, symObjAddr: 0xC0E8, symBinAddr: 0x10000D9FC, symSize: 0x24 }
  - { offset: 0x2BECD, size: 0x8, addend: 0x0, symName: __ZNKSt3__16vectorI9ParameterNS_9allocatorIS1_EEE7__allocB8ne180100Ev, symObjAddr: 0xC10C, symBinAddr: 0x10000DA20, symSize: 0x28 }
  - { offset: 0x2BEF3, size: 0x8, addend: 0x0, symName: __ZNKSt3__19allocatorI9ParameterE8max_sizeB8ne180100Ev, symObjAddr: 0xC134, symBinAddr: 0x10000DA48, symSize: 0x18 }
  - { offset: 0x2BF19, size: 0x8, addend: 0x0, symName: __ZNKSt3__117__compressed_pairIP9ParameterNS_9allocatorIS1_EEE6secondB8ne180100Ev, symObjAddr: 0xC14C, symBinAddr: 0x10000DA60, symSize: 0x24 }
  - { offset: 0x2BF3F, size: 0x8, addend: 0x0, symName: __ZNKSt3__122__compressed_pair_elemINS_9allocatorI9ParameterEELi1ELb1EE5__getB8ne180100Ev, symObjAddr: 0xC170, symBinAddr: 0x10000DA84, symSize: 0x14 }
  - { offset: 0x2BF65, size: 0x8, addend: 0x0, symName: __ZNKSt3__16vectorI9ParameterNS_9allocatorIS1_EEE9__end_capB8ne180100Ev, symObjAddr: 0xC184, symBinAddr: 0x10000DA98, symSize: 0x28 }
  - { offset: 0x2BF8B, size: 0x8, addend: 0x0, symName: __ZNKSt3__117__compressed_pairIP9ParameterNS_9allocatorIS1_EEE5firstB8ne180100Ev, symObjAddr: 0xC1AC, symBinAddr: 0x10000DAC0, symSize: 0x24 }
  - { offset: 0x2BFB1, size: 0x8, addend: 0x0, symName: __ZNKSt3__122__compressed_pair_elemIP9ParameterLi0ELb0EE5__getB8ne180100Ev, symObjAddr: 0xC1D0, symBinAddr: 0x10000DAE4, symSize: 0x14 }
  - { offset: 0x2BFD7, size: 0x8, addend: 0x0, symName: __ZNSt3__114__split_bufferI9ParameterRNS_9allocatorIS1_EEEC2EmmS4_, symObjAddr: 0xC1E4, symBinAddr: 0x10000DAF8, symSize: 0xE0 }
  - { offset: 0x2C04A, size: 0x8, addend: 0x0, symName: __ZNSt3__117__compressed_pairIP9ParameterRNS_9allocatorIS1_EEEC1B8ne180100IDnS5_EEOT_OT0_, symObjAddr: 0xC2C4, symBinAddr: 0x10000DBD8, symSize: 0x3C }
  - { offset: 0x2C0A2, size: 0x8, addend: 0x0, symName: __ZNSt3__114__split_bufferI9ParameterRNS_9allocatorIS1_EEE7__allocB8ne180100Ev, symObjAddr: 0xC340, symBinAddr: 0x10000DC54, symSize: 0x28 }
  - { offset: 0x2C0C8, size: 0x8, addend: 0x0, symName: __ZNSt3__114__split_bufferI9ParameterRNS_9allocatorIS1_EEE9__end_capB8ne180100Ev, symObjAddr: 0xC368, symBinAddr: 0x10000DC7C, symSize: 0x28 }
  - { offset: 0x2C0EE, size: 0x8, addend: 0x0, symName: __ZNSt3__117__compressed_pairIP9ParameterRNS_9allocatorIS1_EEEC2B8ne180100IDnS5_EEOT_OT0_, symObjAddr: 0xC390, symBinAddr: 0x10000DCA4, symSize: 0x48 }
  - { offset: 0x2C146, size: 0x8, addend: 0x0, symName: __ZNSt3__122__compressed_pair_elemIRNS_9allocatorI9ParameterEELi1ELb0EEC2B8ne180100IS4_vEEOT_, symObjAddr: 0xC3D8, symBinAddr: 0x10000DCEC, symSize: 0x20 }
  - { offset: 0x2C188, size: 0x8, addend: 0x0, symName: __ZNSt3__19allocatorI9ParameterE8allocateB8ne180100Em, symObjAddr: 0xC3F8, symBinAddr: 0x10000DD0C, symSize: 0x5C }
  - { offset: 0x2C1BC, size: 0x8, addend: 0x0, symName: __ZNSt3__117__compressed_pairIP9ParameterRNS_9allocatorIS1_EEE6secondB8ne180100Ev, symObjAddr: 0xC454, symBinAddr: 0x10000DD68, symSize: 0x28 }
  - { offset: 0x2C1E2, size: 0x8, addend: 0x0, symName: __ZNSt3__122__compressed_pair_elemIRNS_9allocatorI9ParameterEELi1ELb0EE5__getB8ne180100Ev, symObjAddr: 0xC47C, symBinAddr: 0x10000DD90, symSize: 0x18 }
  - { offset: 0x2C208, size: 0x8, addend: 0x0, symName: __ZNSt3__117__compressed_pairIP9ParameterRNS_9allocatorIS1_EEE5firstB8ne180100Ev, symObjAddr: 0xC494, symBinAddr: 0x10000DDA8, symSize: 0x24 }
  - { offset: 0x2C22E, size: 0x8, addend: 0x0, symName: __ZNKSt3__16vectorI9ParameterNS_9allocatorIS1_EEE17__annotate_deleteB8ne180100Ev, symObjAddr: 0xC4B8, symBinAddr: 0x10000DDCC, symSize: 0x10 }
  - { offset: 0x2C254, size: 0x8, addend: 0x0, symName: __ZNSt3__116reverse_iteratorIP9ParameterEC1B8ne180100ES2_, symObjAddr: 0xC5F4, symBinAddr: 0x10000DF08, symSize: 0x34 }
  - { offset: 0x2C28C, size: 0x8, addend: 0x0, symName: __ZNKSt3__116reverse_iteratorIP9ParameterE4baseB8ne180100Ev, symObjAddr: 0xC628, symBinAddr: 0x10000DF3C, symSize: 0x18 }
  - { offset: 0x2C2B2, size: 0x8, addend: 0x0, symName: __ZNKSt3__16vectorI9ParameterNS_9allocatorIS1_EEE14__annotate_newB8ne180100Em, symObjAddr: 0xC67C, symBinAddr: 0x10000DF90, symSize: 0x14 }
  - { offset: 0x2C2E7, size: 0x8, addend: 0x0, symName: __ZNSt3__129_AllocatorDestroyRangeReverseINS_9allocatorI9ParameterEENS_16reverse_iteratorIPS2_EEEC1B8ne180100ERS3_RS6_S9_, symObjAddr: 0xC6DC, symBinAddr: 0x10000DFF0, symSize: 0x44 }
  - { offset: 0x2C344, size: 0x8, addend: 0x0, symName: __ZNSt3__116allocator_traitsINS_9allocatorI9ParameterEEE9constructB8ne180100IS2_JS2_EvEEvRS3_PT_DpOT0_, symObjAddr: 0xC768, symBinAddr: 0x10000E07C, symSize: 0x34 }
  - { offset: 0x2C39B, size: 0x8, addend: 0x0, symName: __ZNKSt3__116reverse_iteratorIP9ParameterEdeB8ne180100Ev, symObjAddr: 0xC7C0, symBinAddr: 0x10000E0D4, symSize: 0x28 }
  - { offset: 0x2C3CF, size: 0x8, addend: 0x0, symName: __ZNSt3__116reverse_iteratorIP9ParameterEppB8ne180100Ev, symObjAddr: 0xC7E8, symBinAddr: 0x10000E0FC, symSize: 0x20 }
  - { offset: 0x2C3F5, size: 0x8, addend: 0x0, symName: __ZNSt3__128__exception_guard_exceptionsINS_29_AllocatorDestroyRangeReverseINS_9allocatorI9ParameterEENS_16reverse_iteratorIPS3_EEEEE10__completeB8ne180100Ev, symObjAddr: 0xC808, symBinAddr: 0x10000E11C, symSize: 0x1C }
  - { offset: 0x2C41B, size: 0x8, addend: 0x0, symName: __ZNSt3__128__exception_guard_exceptionsINS_29_AllocatorDestroyRangeReverseINS_9allocatorI9ParameterEENS_16reverse_iteratorIPS3_EEEEED1B8ne180100Ev, symObjAddr: 0xC824, symBinAddr: 0x10000E138, symSize: 0x2C }
  - { offset: 0x2C445, size: 0x8, addend: 0x0, symName: __ZNSt3__128__exception_guard_exceptionsINS_29_AllocatorDestroyRangeReverseINS_9allocatorI9ParameterEENS_16reverse_iteratorIPS3_EEEEEC1B8ne180100ES8_, symObjAddr: 0xC850, symBinAddr: 0x10000E164, symSize: 0x34 }
  - { offset: 0x2C47E, size: 0x8, addend: 0x0, symName: __ZNSt3__128__exception_guard_exceptionsINS_29_AllocatorDestroyRangeReverseINS_9allocatorI9ParameterEENS_16reverse_iteratorIPS3_EEEEEC2B8ne180100ES8_, symObjAddr: 0xC884, symBinAddr: 0x10000E198, symSize: 0x30 }
  - { offset: 0x2C4B7, size: 0x8, addend: 0x0, symName: __ZNSt3__129_AllocatorDestroyRangeReverseINS_9allocatorI9ParameterEENS_16reverse_iteratorIPS2_EEEC2B8ne180100ERS3_RS6_S9_, symObjAddr: 0xC8B4, symBinAddr: 0x10000E1C8, symSize: 0x38 }
  - { offset: 0x2C50E, size: 0x8, addend: 0x0, symName: __ZNSt3__19allocatorI9ParameterE9constructB8ne180100IS1_JS1_EEEvPT_DpOT0_, symObjAddr: 0xC8EC, symBinAddr: 0x10000E200, symSize: 0x30 }
  - { offset: 0x2C564, size: 0x8, addend: 0x0, symName: __ZN9ParameterC1EOS_, symObjAddr: 0xC91C, symBinAddr: 0x10000E230, symSize: 0x34 }
  - { offset: 0x2C599, size: 0x8, addend: 0x0, symName: __ZN9ParameterC2EOS_, symObjAddr: 0xC950, symBinAddr: 0x10000E264, symSize: 0x34 }
  - { offset: 0x2C5D4, size: 0x8, addend: 0x0, symName: __ZNSt3__119__to_address_helperINS_16reverse_iteratorIP9ParameterEEvE6__callB8ne180100ERKS4_, symObjAddr: 0xC984, symBinAddr: 0x10000E298, symSize: 0x38 }
  - { offset: 0x2C5F7, size: 0x8, addend: 0x0, symName: __ZNKSt3__116reverse_iteratorIP9ParameterEptB8ne180100Ev, symObjAddr: 0xC9BC, symBinAddr: 0x10000E2D0, symSize: 0x24 }
  - { offset: 0x2C61D, size: 0x8, addend: 0x0, symName: __ZNSt3__128__exception_guard_exceptionsINS_29_AllocatorDestroyRangeReverseINS_9allocatorI9ParameterEENS_16reverse_iteratorIPS3_EEEEED2B8ne180100Ev, symObjAddr: 0xC9E0, symBinAddr: 0x10000E2F4, symSize: 0x50 }
  - { offset: 0x2C647, size: 0x8, addend: 0x0, symName: __ZNKSt3__129_AllocatorDestroyRangeReverseINS_9allocatorI9ParameterEENS_16reverse_iteratorIPS2_EEEclB8ne180100Ev, symObjAddr: 0xCA30, symBinAddr: 0x10000E344, symSize: 0xB4 }
  - { offset: 0x2C66E, size: 0x8, addend: 0x0, symName: __ZNSt3__116reverse_iteratorINS0_IP9ParameterEEEC1B8ne180100ES3_, symObjAddr: 0xCB54, symBinAddr: 0x10000E468, symSize: 0x3C }
  - { offset: 0x2C6A6, size: 0x8, addend: 0x0, symName: __ZNSt3__116allocator_traitsINS_9allocatorI9ParameterEEE7destroyB8ne180100IS2_vEEvRS3_PT_, symObjAddr: 0xCBF0, symBinAddr: 0x10000E504, symSize: 0x2C }
  - { offset: 0x2C6E3, size: 0x8, addend: 0x0, symName: __ZNSt3__116reverse_iteratorINS0_IP9ParameterEEEppB8ne180100Ev, symObjAddr: 0xCC40, symBinAddr: 0x10000E554, symSize: 0x30 }
  - { offset: 0x2C709, size: 0x8, addend: 0x0, symName: __ZNKSt3__116reverse_iteratorINS0_IP9ParameterEEE4baseB8ne180100Ev, symObjAddr: 0xCC70, symBinAddr: 0x10000E584, symSize: 0x24 }
  - { offset: 0x2C72F, size: 0x8, addend: 0x0, symName: __ZNSt3__19allocatorI9ParameterE7destroyB8ne180100EPS1_, symObjAddr: 0xCC94, symBinAddr: 0x10000E5A8, symSize: 0x28 }
  - { offset: 0x2C769, size: 0x8, addend: 0x0, symName: __ZNSt3__119__to_address_helperINS_16reverse_iteratorINS1_IP9ParameterEEEEvE6__callB8ne180100ERKS5_, symObjAddr: 0xCCBC, symBinAddr: 0x10000E5D0, symSize: 0x38 }
  - { offset: 0x2C78C, size: 0x8, addend: 0x0, symName: __ZNKSt3__116reverse_iteratorINS0_IP9ParameterEEEptB8ne180100Ev, symObjAddr: 0xCCF4, symBinAddr: 0x10000E608, symSize: 0x24 }
  - { offset: 0x2C7B2, size: 0x8, addend: 0x0, symName: __ZNKSt3__116reverse_iteratorINS0_IP9ParameterEEEdeB8ne180100Ev, symObjAddr: 0xCD18, symBinAddr: 0x10000E62C, symSize: 0x34 }
  - { offset: 0x2C7E6, size: 0x8, addend: 0x0, symName: __ZNSt3__116reverse_iteratorIP9ParameterEmmB8ne180100Ev, symObjAddr: 0xCD4C, symBinAddr: 0x10000E660, symSize: 0x20 }
  - { offset: 0x2C80C, size: 0x8, addend: 0x0, symName: __ZNSt3__116reverse_iteratorINS0_IP9ParameterEEEC2B8ne180100ES3_, symObjAddr: 0xCD6C, symBinAddr: 0x10000E680, symSize: 0x2C }
  - { offset: 0x2C844, size: 0x8, addend: 0x0, symName: __ZNSt3__116reverse_iteratorIP9ParameterEC2B8ne180100ES2_, symObjAddr: 0xCD98, symBinAddr: 0x10000E6AC, symSize: 0x28 }
  - { offset: 0x2C87C, size: 0x8, addend: 0x0, symName: __ZNSt3__114__split_bufferI9ParameterRNS_9allocatorIS1_EEED2Ev, symObjAddr: 0xCDC0, symBinAddr: 0x10000E6D4, symSize: 0x8C }
  - { offset: 0x2C8A8, size: 0x8, addend: 0x0, symName: __ZNSt3__114__split_bufferI9ParameterRNS_9allocatorIS1_EEE5clearB8ne180100Ev, symObjAddr: 0xCE4C, symBinAddr: 0x10000E760, symSize: 0x28 }
  - { offset: 0x2C8CE, size: 0x8, addend: 0x0, symName: __ZNSt3__116allocator_traitsINS_9allocatorI9ParameterEEE10deallocateB8ne180100ERS3_PS2_m, symObjAddr: 0xCE74, symBinAddr: 0x10000E788, symSize: 0x34 }
  - { offset: 0x2C910, size: 0x8, addend: 0x0, symName: __ZNKSt3__114__split_bufferI9ParameterRNS_9allocatorIS1_EEE8capacityB8ne180100Ev, symObjAddr: 0xCEA8, symBinAddr: 0x10000E7BC, symSize: 0x40 }
  - { offset: 0x2C936, size: 0x8, addend: 0x0, symName: __ZNSt3__114__split_bufferI9ParameterRNS_9allocatorIS1_EEE17__destruct_at_endB8ne180100EPS1_, symObjAddr: 0xCEE8, symBinAddr: 0x10000E7FC, symSize: 0x2C }
  - { offset: 0x2C96A, size: 0x8, addend: 0x0, symName: __ZNSt3__114__split_bufferI9ParameterRNS_9allocatorIS1_EEE17__destruct_at_endB8ne180100EPS1_NS_17integral_constantIbLb0EEE, symObjAddr: 0xCF14, symBinAddr: 0x10000E828, symSize: 0x80 }
  - { offset: 0x2C9AA, size: 0x8, addend: 0x0, symName: __ZNSt3__19allocatorI9ParameterE10deallocateB8ne180100EPS1_m, symObjAddr: 0xCF94, symBinAddr: 0x10000E8A8, symSize: 0x44 }
  - { offset: 0x2C9EC, size: 0x8, addend: 0x0, symName: __ZNKSt3__114__split_bufferI9ParameterRNS_9allocatorIS1_EEE9__end_capB8ne180100Ev, symObjAddr: 0xCFD8, symBinAddr: 0x10000E8EC, symSize: 0x28 }
  - { offset: 0x2CA12, size: 0x8, addend: 0x0, symName: __ZNKSt3__117__compressed_pairIP9ParameterRNS_9allocatorIS1_EEE5firstB8ne180100Ev, symObjAddr: 0xD000, symBinAddr: 0x10000E914, symSize: 0x24 }
  - { offset: 0x2CA38, size: 0x8, addend: 0x0, symName: __ZN9ParameterC2ENSt3__112basic_stringIcNS0_11char_traitsIcEENS0_9allocatorIcEEEE, symObjAddr: 0xD024, symBinAddr: 0x10000E938, symSize: 0x34 }
  - { offset: 0x2CA71, size: 0x8, addend: 0x0, symName: __ZN9ParameterD2Ev, symObjAddr: 0xD058, symBinAddr: 0x10000E96C, symSize: 0x2C }
  - { offset: 0x2CA9D, size: 0x8, addend: 0x0, symName: __ZNSt3__16vectorINS_12basic_stringIcNS_11char_traitsIcEENS_9allocatorIcEEEENS4_IS6_EEED2B8ne180100Ev, symObjAddr: 0xD0CC, symBinAddr: 0x10000E9E0, symSize: 0x44 }
  - { offset: 0x2CAC7, size: 0x8, addend: 0x0, symName: __ZNSt3__16vectorINS_12basic_stringIcNS_11char_traitsIcEENS_9allocatorIcEEEENS4_IS6_EEE16__destroy_vectorC1B8ne180100ERS8_, symObjAddr: 0xD110, symBinAddr: 0x10000EA24, symSize: 0x34 }
  - { offset: 0x2CB00, size: 0x8, addend: 0x0, symName: __ZNSt3__16vectorINS_12basic_stringIcNS_11char_traitsIcEENS_9allocatorIcEEEENS4_IS6_EEE16__destroy_vectorclB8ne180100Ev, symObjAddr: 0xD144, symBinAddr: 0x10000EA58, symSize: 0x90 }
  - { offset: 0x2CB26, size: 0x8, addend: 0x0, symName: __ZNSt3__16vectorINS_12basic_stringIcNS_11char_traitsIcEENS_9allocatorIcEEEENS4_IS6_EEE16__destroy_vectorC2B8ne180100ERS8_, symObjAddr: 0xD1D4, symBinAddr: 0x10000EAE8, symSize: 0x20 }
  - { offset: 0x2CB5F, size: 0x8, addend: 0x0, symName: __ZNSt3__16vectorINS_12basic_stringIcNS_11char_traitsIcEENS_9allocatorIcEEEENS4_IS6_EEE7__clearB8ne180100Ev, symObjAddr: 0xD1F4, symBinAddr: 0x10000EB08, symSize: 0x28 }
  - { offset: 0x2CB85, size: 0x8, addend: 0x0, symName: __ZNSt3__16vectorINS_12basic_stringIcNS_11char_traitsIcEENS_9allocatorIcEEEENS4_IS6_EEE22__base_destruct_at_endB8ne180100EPS6_, symObjAddr: 0xD21C, symBinAddr: 0x10000EB30, symSize: 0x8C }
  - { offset: 0x2CBC9, size: 0x8, addend: 0x0, symName: __ZNSt3__16vectorI9PredicateNS_9allocatorIS1_EEE9push_backB8ne180100ERKS1_, symObjAddr: 0xD2A8, symBinAddr: 0x10000EBBC, symSize: 0x90 }
  - { offset: 0x2CC0F, size: 0x8, addend: 0x0, symName: __ZNSt3__16vectorI9PredicateNS_9allocatorIS1_EEE9__end_capB8ne180100Ev, symObjAddr: 0xD338, symBinAddr: 0x10000EC4C, symSize: 0x28 }
  - { offset: 0x2CC35, size: 0x8, addend: 0x0, symName: __ZNSt3__16vectorI9PredicateNS_9allocatorIS1_EEE22__construct_one_at_endB8ne180100IJRKS1_EEEvDpOT_, symObjAddr: 0xD360, symBinAddr: 0x10000EC74, symSize: 0x90 }
  - { offset: 0x2CC84, size: 0x8, addend: 0x0, symName: __ZNSt3__16vectorI9PredicateNS_9allocatorIS1_EEE21__push_back_slow_pathIRKS1_EEPS1_OT_, symObjAddr: 0xD3F0, symBinAddr: 0x10000ED04, symSize: 0xE8 }
  - { offset: 0x2CCE2, size: 0x8, addend: 0x0, symName: __ZNSt3__117__compressed_pairIP9PredicateNS_9allocatorIS1_EEE5firstB8ne180100Ev, symObjAddr: 0xD4D8, symBinAddr: 0x10000EDEC, symSize: 0x24 }
  - { offset: 0x2CD08, size: 0x8, addend: 0x0, symName: __ZNSt3__122__compressed_pair_elemIP9PredicateLi0ELb0EE5__getB8ne180100Ev, symObjAddr: 0xD4FC, symBinAddr: 0x10000EE10, symSize: 0x14 }
  - { offset: 0x2CD49, size: 0x8, addend: 0x0, symName: __ZNSt3__16vectorI9PredicateNS_9allocatorIS1_EEE21_ConstructTransactionC1B8ne180100ERS4_m, symObjAddr: 0xD510, symBinAddr: 0x10000EE24, symSize: 0x3C }
  - { offset: 0x2CD91, size: 0x8, addend: 0x0, symName: __ZNSt3__116allocator_traitsINS_9allocatorI9PredicateEEE9constructB8ne180100IS2_JRKS2_EvEEvRS3_PT_DpOT0_, symObjAddr: 0xD54C, symBinAddr: 0x10000EE60, symSize: 0x34 }
  - { offset: 0x2CDE8, size: 0x8, addend: 0x0, symName: __ZNSt3__16vectorI9PredicateNS_9allocatorIS1_EEE7__allocB8ne180100Ev, symObjAddr: 0xD580, symBinAddr: 0x10000EE94, symSize: 0x28 }
  - { offset: 0x2CE0E, size: 0x8, addend: 0x0, symName: __ZNSt3__16vectorI9PredicateNS_9allocatorIS1_EEE21_ConstructTransactionD1B8ne180100Ev, symObjAddr: 0xD5BC, symBinAddr: 0x10000EED0, symSize: 0x2C }
  - { offset: 0x2CE38, size: 0x8, addend: 0x0, symName: __ZNSt3__16vectorI9PredicateNS_9allocatorIS1_EEE21_ConstructTransactionC2B8ne180100ERS4_m, symObjAddr: 0xD5E8, symBinAddr: 0x10000EEFC, symSize: 0x4C }
  - { offset: 0x2CE80, size: 0x8, addend: 0x0, symName: __ZNSt3__19allocatorI9PredicateE9constructB8ne180100IS1_JRKS1_EEEvPT_DpOT0_, symObjAddr: 0xD634, symBinAddr: 0x10000EF48, symSize: 0x30 }
  - { offset: 0x2CED6, size: 0x8, addend: 0x0, symName: __ZNSt3__117__compressed_pairIP9PredicateNS_9allocatorIS1_EEE6secondB8ne180100Ev, symObjAddr: 0xD664, symBinAddr: 0x10000EF78, symSize: 0x24 }
  - { offset: 0x2CEFC, size: 0x8, addend: 0x0, symName: __ZNSt3__122__compressed_pair_elemINS_9allocatorI9PredicateEELi1ELb1EE5__getB8ne180100Ev, symObjAddr: 0xD688, symBinAddr: 0x10000EF9C, symSize: 0x14 }
  - { offset: 0x2CF22, size: 0x8, addend: 0x0, symName: __ZNSt3__16vectorI9PredicateNS_9allocatorIS1_EEE21_ConstructTransactionD2B8ne180100Ev, symObjAddr: 0xD69C, symBinAddr: 0x10000EFB0, symSize: 0x20 }
  - { offset: 0x2CF4C, size: 0x8, addend: 0x0, symName: __ZNKSt3__16vectorI9PredicateNS_9allocatorIS1_EEE11__recommendB8ne180100Em, symObjAddr: 0xD6BC, symBinAddr: 0x10000EFD0, symSize: 0xB4 }
  - { offset: 0x2CFA1, size: 0x8, addend: 0x0, symName: __ZNKSt3__16vectorI9PredicateNS_9allocatorIS1_EEE4sizeB8ne180100Ev, symObjAddr: 0xD770, symBinAddr: 0x10000F084, symSize: 0x28 }
  - { offset: 0x2CFC7, size: 0x8, addend: 0x0, symName: __ZNSt3__114__split_bufferI9PredicateRNS_9allocatorIS1_EEEC1EmmS4_, symObjAddr: 0xD798, symBinAddr: 0x10000F0AC, symSize: 0x44 }
  - { offset: 0x2D01D, size: 0x8, addend: 0x0, symName: __ZNSt3__114__split_bufferI9PredicateRNS_9allocatorIS1_EEED1Ev, symObjAddr: 0xD8EC, symBinAddr: 0x10000F200, symSize: 0x2C }
  - { offset: 0x2D049, size: 0x8, addend: 0x0, symName: __ZNKSt3__16vectorI9PredicateNS_9allocatorIS1_EEE8max_sizeEv, symObjAddr: 0xD918, symBinAddr: 0x10000F22C, symSize: 0x60 }
  - { offset: 0x2D071, size: 0x8, addend: 0x0, symName: __ZNKSt3__16vectorI9PredicateNS_9allocatorIS1_EEE20__throw_length_errorB8ne180100Ev, symObjAddr: 0xD978, symBinAddr: 0x10000F28C, symSize: 0x1C }
  - { offset: 0x2D097, size: 0x8, addend: 0x0, symName: __ZNKSt3__16vectorI9PredicateNS_9allocatorIS1_EEE8capacityB8ne180100Ev, symObjAddr: 0xD994, symBinAddr: 0x10000F2A8, symSize: 0x40 }
  - { offset: 0x2D0C8, size: 0x8, addend: 0x0, symName: __ZNSt3__116allocator_traitsINS_9allocatorI9PredicateEEE8max_sizeB8ne180100IS3_vEEmRKS3_, symObjAddr: 0xD9D4, symBinAddr: 0x10000F2E8, symSize: 0x24 }
  - { offset: 0x2D0F6, size: 0x8, addend: 0x0, symName: __ZNKSt3__16vectorI9PredicateNS_9allocatorIS1_EEE7__allocB8ne180100Ev, symObjAddr: 0xD9F8, symBinAddr: 0x10000F30C, symSize: 0x28 }
  - { offset: 0x2D11C, size: 0x8, addend: 0x0, symName: __ZNKSt3__19allocatorI9PredicateE8max_sizeB8ne180100Ev, symObjAddr: 0xDA20, symBinAddr: 0x10000F334, symSize: 0x18 }
  - { offset: 0x2D142, size: 0x8, addend: 0x0, symName: __ZNKSt3__117__compressed_pairIP9PredicateNS_9allocatorIS1_EEE6secondB8ne180100Ev, symObjAddr: 0xDA38, symBinAddr: 0x10000F34C, symSize: 0x24 }
  - { offset: 0x2D168, size: 0x8, addend: 0x0, symName: __ZNKSt3__122__compressed_pair_elemINS_9allocatorI9PredicateEELi1ELb1EE5__getB8ne180100Ev, symObjAddr: 0xDA5C, symBinAddr: 0x10000F370, symSize: 0x14 }
  - { offset: 0x2D18E, size: 0x8, addend: 0x0, symName: __ZNKSt3__16vectorI9PredicateNS_9allocatorIS1_EEE9__end_capB8ne180100Ev, symObjAddr: 0xDA70, symBinAddr: 0x10000F384, symSize: 0x28 }
  - { offset: 0x2D1B4, size: 0x8, addend: 0x0, symName: __ZNKSt3__117__compressed_pairIP9PredicateNS_9allocatorIS1_EEE5firstB8ne180100Ev, symObjAddr: 0xDA98, symBinAddr: 0x10000F3AC, symSize: 0x24 }
  - { offset: 0x2D1DA, size: 0x8, addend: 0x0, symName: __ZNKSt3__122__compressed_pair_elemIP9PredicateLi0ELb0EE5__getB8ne180100Ev, symObjAddr: 0xDABC, symBinAddr: 0x10000F3D0, symSize: 0x14 }
  - { offset: 0x2D200, size: 0x8, addend: 0x0, symName: __ZNSt3__114__split_bufferI9PredicateRNS_9allocatorIS1_EEEC2EmmS4_, symObjAddr: 0xDAD0, symBinAddr: 0x10000F3E4, symSize: 0xE0 }
  - { offset: 0x2D273, size: 0x8, addend: 0x0, symName: __ZNSt3__117__compressed_pairIP9PredicateRNS_9allocatorIS1_EEEC1B8ne180100IDnS5_EEOT_OT0_, symObjAddr: 0xDBB0, symBinAddr: 0x10000F4C4, symSize: 0x3C }
  - { offset: 0x2D2CB, size: 0x8, addend: 0x0, symName: __ZNSt3__114__split_bufferI9PredicateRNS_9allocatorIS1_EEE7__allocB8ne180100Ev, symObjAddr: 0xDC2C, symBinAddr: 0x10000F540, symSize: 0x28 }
  - { offset: 0x2D2F1, size: 0x8, addend: 0x0, symName: __ZNSt3__114__split_bufferI9PredicateRNS_9allocatorIS1_EEE9__end_capB8ne180100Ev, symObjAddr: 0xDC54, symBinAddr: 0x10000F568, symSize: 0x28 }
  - { offset: 0x2D317, size: 0x8, addend: 0x0, symName: __ZNSt3__117__compressed_pairIP9PredicateRNS_9allocatorIS1_EEEC2B8ne180100IDnS5_EEOT_OT0_, symObjAddr: 0xDC7C, symBinAddr: 0x10000F590, symSize: 0x48 }
  - { offset: 0x2D36F, size: 0x8, addend: 0x0, symName: __ZNSt3__122__compressed_pair_elemIRNS_9allocatorI9PredicateEELi1ELb0EEC2B8ne180100IS4_vEEOT_, symObjAddr: 0xDCC4, symBinAddr: 0x10000F5D8, symSize: 0x20 }
  - { offset: 0x2D3B1, size: 0x8, addend: 0x0, symName: __ZNSt3__19allocatorI9PredicateE8allocateB8ne180100Em, symObjAddr: 0xDCE4, symBinAddr: 0x10000F5F8, symSize: 0x5C }
  - { offset: 0x2D3E5, size: 0x8, addend: 0x0, symName: __ZNSt3__117__compressed_pairIP9PredicateRNS_9allocatorIS1_EEE6secondB8ne180100Ev, symObjAddr: 0xDD40, symBinAddr: 0x10000F654, symSize: 0x28 }
  - { offset: 0x2D40B, size: 0x8, addend: 0x0, symName: __ZNSt3__122__compressed_pair_elemIRNS_9allocatorI9PredicateEELi1ELb0EE5__getB8ne180100Ev, symObjAddr: 0xDD68, symBinAddr: 0x10000F67C, symSize: 0x18 }
  - { offset: 0x2D431, size: 0x8, addend: 0x0, symName: __ZNSt3__117__compressed_pairIP9PredicateRNS_9allocatorIS1_EEE5firstB8ne180100Ev, symObjAddr: 0xDD80, symBinAddr: 0x10000F694, symSize: 0x24 }
  - { offset: 0x2D457, size: 0x8, addend: 0x0, symName: __ZNKSt3__16vectorI9PredicateNS_9allocatorIS1_EEE17__annotate_deleteB8ne180100Ev, symObjAddr: 0xDDA4, symBinAddr: 0x10000F6B8, symSize: 0x10 }
  - { offset: 0x2D47D, size: 0x8, addend: 0x0, symName: __ZNSt3__116reverse_iteratorIP9PredicateEC1B8ne180100ES2_, symObjAddr: 0xDEE0, symBinAddr: 0x10000F7F4, symSize: 0x34 }
  - { offset: 0x2D4B5, size: 0x8, addend: 0x0, symName: __ZNKSt3__116reverse_iteratorIP9PredicateE4baseB8ne180100Ev, symObjAddr: 0xDF14, symBinAddr: 0x10000F828, symSize: 0x18 }
  - { offset: 0x2D4DB, size: 0x8, addend: 0x0, symName: __ZNKSt3__16vectorI9PredicateNS_9allocatorIS1_EEE14__annotate_newB8ne180100Em, symObjAddr: 0xDF68, symBinAddr: 0x10000F87C, symSize: 0x14 }
  - { offset: 0x2D510, size: 0x8, addend: 0x0, symName: __ZNSt3__129_AllocatorDestroyRangeReverseINS_9allocatorI9PredicateEENS_16reverse_iteratorIPS2_EEEC1B8ne180100ERS3_RS6_S9_, symObjAddr: 0xDFC8, symBinAddr: 0x10000F8DC, symSize: 0x44 }
  - { offset: 0x2D56D, size: 0x8, addend: 0x0, symName: __ZNSt3__116allocator_traitsINS_9allocatorI9PredicateEEE9constructB8ne180100IS2_JS2_EvEEvRS3_PT_DpOT0_, symObjAddr: 0xE054, symBinAddr: 0x10000F968, symSize: 0x34 }
  - { offset: 0x2D5C4, size: 0x8, addend: 0x0, symName: __ZNKSt3__116reverse_iteratorIP9PredicateEdeB8ne180100Ev, symObjAddr: 0xE0AC, symBinAddr: 0x10000F9C0, symSize: 0x28 }
  - { offset: 0x2D5F8, size: 0x8, addend: 0x0, symName: __ZNSt3__116reverse_iteratorIP9PredicateEppB8ne180100Ev, symObjAddr: 0xE0D4, symBinAddr: 0x10000F9E8, symSize: 0x20 }
  - { offset: 0x2D61E, size: 0x8, addend: 0x0, symName: __ZNSt3__128__exception_guard_exceptionsINS_29_AllocatorDestroyRangeReverseINS_9allocatorI9PredicateEENS_16reverse_iteratorIPS3_EEEEE10__completeB8ne180100Ev, symObjAddr: 0xE0F4, symBinAddr: 0x10000FA08, symSize: 0x1C }
  - { offset: 0x2D644, size: 0x8, addend: 0x0, symName: __ZNSt3__128__exception_guard_exceptionsINS_29_AllocatorDestroyRangeReverseINS_9allocatorI9PredicateEENS_16reverse_iteratorIPS3_EEEEED1B8ne180100Ev, symObjAddr: 0xE110, symBinAddr: 0x10000FA24, symSize: 0x2C }
  - { offset: 0x2D66E, size: 0x8, addend: 0x0, symName: __ZNSt3__128__exception_guard_exceptionsINS_29_AllocatorDestroyRangeReverseINS_9allocatorI9PredicateEENS_16reverse_iteratorIPS3_EEEEEC1B8ne180100ES8_, symObjAddr: 0xE13C, symBinAddr: 0x10000FA50, symSize: 0x34 }
  - { offset: 0x2D6A7, size: 0x8, addend: 0x0, symName: __ZNSt3__128__exception_guard_exceptionsINS_29_AllocatorDestroyRangeReverseINS_9allocatorI9PredicateEENS_16reverse_iteratorIPS3_EEEEEC2B8ne180100ES8_, symObjAddr: 0xE170, symBinAddr: 0x10000FA84, symSize: 0x30 }
  - { offset: 0x2D6E0, size: 0x8, addend: 0x0, symName: __ZNSt3__129_AllocatorDestroyRangeReverseINS_9allocatorI9PredicateEENS_16reverse_iteratorIPS2_EEEC2B8ne180100ERS3_RS6_S9_, symObjAddr: 0xE1A0, symBinAddr: 0x10000FAB4, symSize: 0x38 }
  - { offset: 0x2D737, size: 0x8, addend: 0x0, symName: __ZNSt3__19allocatorI9PredicateE9constructB8ne180100IS1_JS1_EEEvPT_DpOT0_, symObjAddr: 0xE1D8, symBinAddr: 0x10000FAEC, symSize: 0x30 }
  - { offset: 0x2D78D, size: 0x8, addend: 0x0, symName: __ZN9PredicateC1EOS_, symObjAddr: 0xE208, symBinAddr: 0x10000FB1C, symSize: 0x34 }
  - { offset: 0x2D7C2, size: 0x8, addend: 0x0, symName: __ZN9PredicateC2EOS_, symObjAddr: 0xE23C, symBinAddr: 0x10000FB50, symSize: 0x48 }
  - { offset: 0x2D7F7, size: 0x8, addend: 0x0, symName: __ZNSt3__16vectorI9ParameterNS_9allocatorIS1_EEEC1B8ne180100EOS4_, symObjAddr: 0xE284, symBinAddr: 0x10000FB98, symSize: 0x34 }
  - { offset: 0x2D832, size: 0x8, addend: 0x0, symName: __ZNSt3__16vectorI9ParameterNS_9allocatorIS1_EEEC2B8ne180100EOS4_, symObjAddr: 0xE2B8, symBinAddr: 0x10000FBCC, symSize: 0xC4 }
  - { offset: 0x2D873, size: 0x8, addend: 0x0, symName: __ZNSt3__117__compressed_pairIP9ParameterNS_9allocatorIS1_EEEC1B8ne180100IDnS4_EEOT_OT0_, symObjAddr: 0xE37C, symBinAddr: 0x10000FC90, symSize: 0x3C }
  - { offset: 0x2D8CB, size: 0x8, addend: 0x0, symName: __ZNSt3__117__compressed_pairIP9ParameterNS_9allocatorIS1_EEEC2B8ne180100IDnS4_EEOT_OT0_, symObjAddr: 0xE3B8, symBinAddr: 0x10000FCCC, symSize: 0x44 }
  - { offset: 0x2D923, size: 0x8, addend: 0x0, symName: __ZNSt3__122__compressed_pair_elemINS_9allocatorI9ParameterEELi1ELb1EEC2B8ne180100IS3_vEEOT_, symObjAddr: 0xE3FC, symBinAddr: 0x10000FD10, symSize: 0x18 }
  - { offset: 0x2D96B, size: 0x8, addend: 0x0, symName: __ZNSt3__119__to_address_helperINS_16reverse_iteratorIP9PredicateEEvE6__callB8ne180100ERKS4_, symObjAddr: 0xE414, symBinAddr: 0x10000FD28, symSize: 0x38 }
  - { offset: 0x2D98E, size: 0x8, addend: 0x0, symName: __ZNKSt3__116reverse_iteratorIP9PredicateEptB8ne180100Ev, symObjAddr: 0xE44C, symBinAddr: 0x10000FD60, symSize: 0x24 }
  - { offset: 0x2D9B4, size: 0x8, addend: 0x0, symName: __ZNSt3__128__exception_guard_exceptionsINS_29_AllocatorDestroyRangeReverseINS_9allocatorI9PredicateEENS_16reverse_iteratorIPS3_EEEEED2B8ne180100Ev, symObjAddr: 0xE470, symBinAddr: 0x10000FD84, symSize: 0x50 }
  - { offset: 0x2D9DE, size: 0x8, addend: 0x0, symName: __ZNKSt3__129_AllocatorDestroyRangeReverseINS_9allocatorI9PredicateEENS_16reverse_iteratorIPS2_EEEclB8ne180100Ev, symObjAddr: 0xE4C0, symBinAddr: 0x10000FDD4, symSize: 0xB4 }
  - { offset: 0x2DA05, size: 0x8, addend: 0x0, symName: __ZNSt3__116reverse_iteratorINS0_IP9PredicateEEEC1B8ne180100ES3_, symObjAddr: 0xE5E4, symBinAddr: 0x10000FEF8, symSize: 0x3C }
  - { offset: 0x2DA3D, size: 0x8, addend: 0x0, symName: __ZNSt3__116allocator_traitsINS_9allocatorI9PredicateEEE7destroyB8ne180100IS2_vEEvRS3_PT_, symObjAddr: 0xE680, symBinAddr: 0x10000FF94, symSize: 0x2C }
  - { offset: 0x2DA7A, size: 0x8, addend: 0x0, symName: __ZNSt3__116reverse_iteratorINS0_IP9PredicateEEEppB8ne180100Ev, symObjAddr: 0xE6D0, symBinAddr: 0x10000FFE4, symSize: 0x30 }
  - { offset: 0x2DAA0, size: 0x8, addend: 0x0, symName: __ZNKSt3__116reverse_iteratorINS0_IP9PredicateEEE4baseB8ne180100Ev, symObjAddr: 0xE700, symBinAddr: 0x100010014, symSize: 0x24 }
  - { offset: 0x2DAC6, size: 0x8, addend: 0x0, symName: __ZNSt3__19allocatorI9PredicateE7destroyB8ne180100EPS1_, symObjAddr: 0xE724, symBinAddr: 0x100010038, symSize: 0x28 }
  - { offset: 0x2DB00, size: 0x8, addend: 0x0, symName: __ZNSt3__119__to_address_helperINS_16reverse_iteratorINS1_IP9PredicateEEEEvE6__callB8ne180100ERKS5_, symObjAddr: 0xE74C, symBinAddr: 0x100010060, symSize: 0x38 }
  - { offset: 0x2DB23, size: 0x8, addend: 0x0, symName: __ZNKSt3__116reverse_iteratorINS0_IP9PredicateEEEptB8ne180100Ev, symObjAddr: 0xE784, symBinAddr: 0x100010098, symSize: 0x24 }
  - { offset: 0x2DB49, size: 0x8, addend: 0x0, symName: __ZNKSt3__116reverse_iteratorINS0_IP9PredicateEEEdeB8ne180100Ev, symObjAddr: 0xE7A8, symBinAddr: 0x1000100BC, symSize: 0x34 }
  - { offset: 0x2DB7D, size: 0x8, addend: 0x0, symName: __ZNSt3__116reverse_iteratorIP9PredicateEmmB8ne180100Ev, symObjAddr: 0xE7DC, symBinAddr: 0x1000100F0, symSize: 0x20 }
  - { offset: 0x2DBA3, size: 0x8, addend: 0x0, symName: __ZNSt3__116reverse_iteratorINS0_IP9PredicateEEEC2B8ne180100ES3_, symObjAddr: 0xE7FC, symBinAddr: 0x100010110, symSize: 0x2C }
  - { offset: 0x2DBDB, size: 0x8, addend: 0x0, symName: __ZNSt3__116reverse_iteratorIP9PredicateEC2B8ne180100ES2_, symObjAddr: 0xE828, symBinAddr: 0x10001013C, symSize: 0x28 }
  - { offset: 0x2DC13, size: 0x8, addend: 0x0, symName: __ZNSt3__114__split_bufferI9PredicateRNS_9allocatorIS1_EEED2Ev, symObjAddr: 0xE850, symBinAddr: 0x100010164, symSize: 0x8C }
  - { offset: 0x2DC3F, size: 0x8, addend: 0x0, symName: __ZNSt3__114__split_bufferI9PredicateRNS_9allocatorIS1_EEE5clearB8ne180100Ev, symObjAddr: 0xE8DC, symBinAddr: 0x1000101F0, symSize: 0x28 }
  - { offset: 0x2DC65, size: 0x8, addend: 0x0, symName: __ZNSt3__116allocator_traitsINS_9allocatorI9PredicateEEE10deallocateB8ne180100ERS3_PS2_m, symObjAddr: 0xE904, symBinAddr: 0x100010218, symSize: 0x34 }
  - { offset: 0x2DCA7, size: 0x8, addend: 0x0, symName: __ZNKSt3__114__split_bufferI9PredicateRNS_9allocatorIS1_EEE8capacityB8ne180100Ev, symObjAddr: 0xE938, symBinAddr: 0x10001024C, symSize: 0x40 }
  - { offset: 0x2DCCD, size: 0x8, addend: 0x0, symName: __ZNSt3__114__split_bufferI9PredicateRNS_9allocatorIS1_EEE17__destruct_at_endB8ne180100EPS1_, symObjAddr: 0xE978, symBinAddr: 0x10001028C, symSize: 0x2C }
  - { offset: 0x2DD01, size: 0x8, addend: 0x0, symName: __ZNSt3__114__split_bufferI9PredicateRNS_9allocatorIS1_EEE17__destruct_at_endB8ne180100EPS1_NS_17integral_constantIbLb0EEE, symObjAddr: 0xE9A4, symBinAddr: 0x1000102B8, symSize: 0x80 }
  - { offset: 0x2DD41, size: 0x8, addend: 0x0, symName: __ZNSt3__19allocatorI9PredicateE10deallocateB8ne180100EPS1_m, symObjAddr: 0xEA24, symBinAddr: 0x100010338, symSize: 0x44 }
  - { offset: 0x2DD83, size: 0x8, addend: 0x0, symName: __ZNKSt3__114__split_bufferI9PredicateRNS_9allocatorIS1_EEE9__end_capB8ne180100Ev, symObjAddr: 0xEA68, symBinAddr: 0x10001037C, symSize: 0x28 }
  - { offset: 0x2DDA9, size: 0x8, addend: 0x0, symName: __ZNKSt3__117__compressed_pairIP9PredicateRNS_9allocatorIS1_EEE5firstB8ne180100Ev, symObjAddr: 0xEA90, symBinAddr: 0x1000103A4, symSize: 0x24 }
  - { offset: 0x2DDCF, size: 0x8, addend: 0x0, symName: __ZN9PredicateC2ERKS_, symObjAddr: 0xEAB4, symBinAddr: 0x1000103C8, symSize: 0x70 }
  - { offset: 0x2DE04, size: 0x8, addend: 0x0, symName: __ZNSt3__16vectorI9ParameterNS_9allocatorIS1_EEEC1ERKS4_, symObjAddr: 0xEB24, symBinAddr: 0x100010438, symSize: 0x34 }
  - { offset: 0x2DE3F, size: 0x8, addend: 0x0, symName: __ZNSt3__16vectorI9ParameterNS_9allocatorIS1_EEEC2ERKS4_, symObjAddr: 0xEB58, symBinAddr: 0x10001046C, symSize: 0x94 }
  - { offset: 0x2DE7A, size: 0x8, addend: 0x0, symName: __ZNSt3__116allocator_traitsINS_9allocatorI9ParameterEEE37select_on_container_copy_constructionB8ne180100IS3_vvEES3_RKS3_, symObjAddr: 0xEBEC, symBinAddr: 0x100010500, symSize: 0x10 }
  - { offset: 0x2DEA9, size: 0x8, addend: 0x0, symName: __ZNSt3__16vectorI9ParameterNS_9allocatorIS1_EEE16__init_with_sizeB8ne180100IPS1_S6_EEvT_T0_m, symObjAddr: 0xEBFC, symBinAddr: 0x100010510, symSize: 0xB8 }
  - { offset: 0x2DF1D, size: 0x8, addend: 0x0, symName: __ZNSt3__16vectorI9ParameterNS_9allocatorIS1_EEE16__destroy_vectorC1B8ne180100ERS4_, symObjAddr: 0xECF4, symBinAddr: 0x100010608, symSize: 0x34 }
  - { offset: 0x2DF56, size: 0x8, addend: 0x0, symName: __ZNSt3__16vectorI9ParameterNS_9allocatorIS1_EEE11__vallocateB8ne180100Em, symObjAddr: 0xED28, symBinAddr: 0x10001063C, symSize: 0xB4 }
  - { offset: 0x2DF9A, size: 0x8, addend: 0x0, symName: __ZNSt3__16vectorI9ParameterNS_9allocatorIS1_EEE18__construct_at_endIPS1_S6_EEvT_T0_m, symObjAddr: 0xEDDC, symBinAddr: 0x1000106F0, symSize: 0x8C }
  - { offset: 0x2E010, size: 0x8, addend: 0x0, symName: __ZNSt3__128__exception_guard_exceptionsINS_6vectorI9ParameterNS_9allocatorIS2_EEE16__destroy_vectorEE10__completeB8ne180100Ev, symObjAddr: 0xEE68, symBinAddr: 0x10001077C, symSize: 0x1C }
  - { offset: 0x2E036, size: 0x8, addend: 0x0, symName: __ZNSt3__128__exception_guard_exceptionsINS_6vectorI9ParameterNS_9allocatorIS2_EEE16__destroy_vectorEED1B8ne180100Ev, symObjAddr: 0xEE84, symBinAddr: 0x100010798, symSize: 0x2C }
  - { offset: 0x2E060, size: 0x8, addend: 0x0, symName: __ZNSt3__128__exception_guard_exceptionsINS_6vectorI9ParameterNS_9allocatorIS2_EEE16__destroy_vectorEEC1B8ne180100ES6_, symObjAddr: 0xEEB0, symBinAddr: 0x1000107C4, symSize: 0x34 }
  - { offset: 0x2E098, size: 0x8, addend: 0x0, symName: __ZNSt3__128__exception_guard_exceptionsINS_6vectorI9ParameterNS_9allocatorIS2_EEE16__destroy_vectorEEC2B8ne180100ES6_, symObjAddr: 0xEEE4, symBinAddr: 0x1000107F8, symSize: 0x24 }
  - { offset: 0x2E0D0, size: 0x8, addend: 0x0, symName: __ZNSt3__16vectorI9ParameterNS_9allocatorIS1_EEE16__destroy_vectorC2B8ne180100ERS4_, symObjAddr: 0xEF08, symBinAddr: 0x10001081C, symSize: 0x20 }
  - { offset: 0x2E12B, size: 0x8, addend: 0x0, symName: __ZNSt3__14pairIP9ParameterS2_EC1B8ne180100IS2_S2_Li0EEEOT_OT0_, symObjAddr: 0xF194, symBinAddr: 0x100010AA8, symSize: 0x3C }
  - { offset: 0x2E189, size: 0x8, addend: 0x0, symName: __ZNSt3__14pairIP9ParameterS2_EC2B8ne180100IS2_S2_Li0EEEOT_OT0_, symObjAddr: 0xF1D0, symBinAddr: 0x100010AE4, symSize: 0x34 }
  - { offset: 0x2E1E7, size: 0x8, addend: 0x0, symName: __ZNSt3__129_AllocatorDestroyRangeReverseINS_9allocatorI9ParameterEEPS2_EC1B8ne180100ERS3_RS4_S7_, symObjAddr: 0xF250, symBinAddr: 0x100010B64, symSize: 0x44 }
  - { offset: 0x2E23E, size: 0x8, addend: 0x0, symName: __ZNSt3__116allocator_traitsINS_9allocatorI9ParameterEEE9constructB8ne180100IS2_JRS2_EvEEvRS3_PT_DpOT0_, symObjAddr: 0xF294, symBinAddr: 0x100010BA8, symSize: 0x34 }
  - { offset: 0x2E295, size: 0x8, addend: 0x0, symName: __ZNSt3__128__exception_guard_exceptionsINS_29_AllocatorDestroyRangeReverseINS_9allocatorI9ParameterEEPS3_EEE10__completeB8ne180100Ev, symObjAddr: 0xF2C8, symBinAddr: 0x100010BDC, symSize: 0x1C }
  - { offset: 0x2E2BB, size: 0x8, addend: 0x0, symName: __ZNSt3__128__exception_guard_exceptionsINS_29_AllocatorDestroyRangeReverseINS_9allocatorI9ParameterEEPS3_EEED1B8ne180100Ev, symObjAddr: 0xF2E4, symBinAddr: 0x100010BF8, symSize: 0x2C }
  - { offset: 0x2E2E5, size: 0x8, addend: 0x0, symName: __ZNSt3__128__exception_guard_exceptionsINS_29_AllocatorDestroyRangeReverseINS_9allocatorI9ParameterEEPS3_EEEC1B8ne180100ES6_, symObjAddr: 0xF310, symBinAddr: 0x100010C24, symSize: 0x34 }
  - { offset: 0x2E31E, size: 0x8, addend: 0x0, symName: __ZNSt3__128__exception_guard_exceptionsINS_29_AllocatorDestroyRangeReverseINS_9allocatorI9ParameterEEPS3_EEEC2B8ne180100ES6_, symObjAddr: 0xF344, symBinAddr: 0x100010C58, symSize: 0x30 }
  - { offset: 0x2E357, size: 0x8, addend: 0x0, symName: __ZNSt3__129_AllocatorDestroyRangeReverseINS_9allocatorI9ParameterEEPS2_EC2B8ne180100ERS3_RS4_S7_, symObjAddr: 0xF374, symBinAddr: 0x100010C88, symSize: 0x38 }
  - { offset: 0x2E3AE, size: 0x8, addend: 0x0, symName: __ZNSt3__19allocatorI9ParameterE9constructB8ne180100IS1_JRS1_EEEvPT_DpOT0_, symObjAddr: 0xF3AC, symBinAddr: 0x100010CC0, symSize: 0x30 }
  - { offset: 0x2E404, size: 0x8, addend: 0x0, symName: __ZNSt3__128__exception_guard_exceptionsINS_29_AllocatorDestroyRangeReverseINS_9allocatorI9ParameterEEPS3_EEED2B8ne180100Ev, symObjAddr: 0xF3DC, symBinAddr: 0x100010CF0, symSize: 0x50 }
  - { offset: 0x2E42E, size: 0x8, addend: 0x0, symName: __ZNKSt3__129_AllocatorDestroyRangeReverseINS_9allocatorI9ParameterEEPS2_EclB8ne180100Ev, symObjAddr: 0xF42C, symBinAddr: 0x100010D40, symSize: 0x68 }
  - { offset: 0x2E454, size: 0x8, addend: 0x0, symName: __ZNSt3__118__unwrap_iter_implIP9ParameterLb1EE8__unwrapB8ne180100ES2_, symObjAddr: 0xF504, symBinAddr: 0x100010E18, symSize: 0x24 }
  - { offset: 0x2E477, size: 0x8, addend: 0x0, symName: __ZNSt3__118__unwrap_iter_implIP9ParameterLb1EE8__rewrapB8ne180100ES2_S2_, symObjAddr: 0xF528, symBinAddr: 0x100010E3C, symSize: 0x58 }
  - { offset: 0x2E4A8, size: 0x8, addend: 0x0, symName: __ZNSt3__128__exception_guard_exceptionsINS_6vectorI9ParameterNS_9allocatorIS2_EEE16__destroy_vectorEED2B8ne180100Ev, symObjAddr: 0xF580, symBinAddr: 0x100010E94, symSize: 0x50 }
  - { offset: 0x2E4D2, size: 0x8, addend: 0x0, symName: __ZNSt3__16vectorI9ParameterNS_9allocatorIS1_EEE16__destroy_vectorclB8ne180100Ev, symObjAddr: 0xF5D0, symBinAddr: 0x100010EE4, symSize: 0x90 }
  - { offset: 0x2E4F8, size: 0x8, addend: 0x0, symName: __ZNSt3__16vectorI9ParameterNS_9allocatorIS1_EEE7__clearB8ne180100Ev, symObjAddr: 0xF660, symBinAddr: 0x100010F74, symSize: 0x28 }
  - { offset: 0x2E51E, size: 0x8, addend: 0x0, symName: __ZNSt3__16vectorI9ParameterNS_9allocatorIS1_EEE22__base_destruct_at_endB8ne180100EPS1_, symObjAddr: 0xF688, symBinAddr: 0x100010F9C, symSize: 0x8C }
  - { offset: 0x2E562, size: 0x8, addend: 0x0, symName: __ZN9PredicateD2Ev, symObjAddr: 0xF714, symBinAddr: 0x100011028, symSize: 0x38 }
  - { offset: 0x2E58E, size: 0x8, addend: 0x0, symName: __ZNSt3__16vectorI9ParameterNS_9allocatorIS1_EEED1B8ne180100Ev, symObjAddr: 0xF74C, symBinAddr: 0x100011060, symSize: 0x2C }
  - { offset: 0x2E5B8, size: 0x8, addend: 0x0, symName: __ZNSt3__16vectorI9ParameterNS_9allocatorIS1_EEED2B8ne180100Ev, symObjAddr: 0xF778, symBinAddr: 0x10001108C, symSize: 0x40 }
  - { offset: 0x2E5E2, size: 0x8, addend: 0x0, symName: __ZNSt3__16vectorI9PredicateNS_9allocatorIS1_EEE6insertINS_11__wrap_iterIPS1_EELi0EEES8_NS6_IPKS1_EET_SC_, symObjAddr: 0xF7B8, symBinAddr: 0x1000110CC, symSize: 0x84 }
  - { offset: 0x2E64C, size: 0x8, addend: 0x0, symName: __ZNSt3__111__wrap_iterIPK9PredicateEC1B8ne180100IPS1_Li0EEERKNS0_IT_EE, symObjAddr: 0xF83C, symBinAddr: 0x100011150, symSize: 0x34 }
  - { offset: 0x2E693, size: 0x8, addend: 0x0, symName: __ZNSt3__16vectorI9PredicateNS_9allocatorIS1_EEE18__insert_with_sizeB8ne180100INS_11__wrap_iterIPS1_EES8_EES8_NS6_IPKS1_EET_T0_l, symObjAddr: 0xF870, symBinAddr: 0x100011184, symSize: 0x320 }
  - { offset: 0x2E7BB, size: 0x8, addend: 0x0, symName: __ZNSt3__16vectorI9PredicateNS_9allocatorIS1_EEE18__construct_at_endINS_11__wrap_iterIPS1_EES8_EEvT_T0_m, symObjAddr: 0xFC88, symBinAddr: 0x10001159C, symSize: 0x9C }
  - { offset: 0x2E831, size: 0x8, addend: 0x0, symName: __ZNSt3__16vectorI9PredicateNS_9allocatorIS1_EEE12__move_rangeEPS1_S5_S5_, symObjAddr: 0xFD24, symBinAddr: 0x100011638, symSize: 0x13C }
  - { offset: 0x2E8ED, size: 0x8, addend: 0x0, symName: __ZNSt3__114__split_bufferI9PredicateRNS_9allocatorIS1_EEE28__construct_at_end_with_sizeINS_11__wrap_iterIPS1_EEEEvT_m, symObjAddr: 0xFEB0, symBinAddr: 0x1000117C4, symSize: 0xD0 }
  - { offset: 0x2E949, size: 0x8, addend: 0x0, symName: __ZNSt3__16vectorI9PredicateNS_9allocatorIS1_EEE11__make_iterB8ne180100EPS1_, symObjAddr: 0x100CC, symBinAddr: 0x1000119E0, symSize: 0x30 }
  - { offset: 0x2E97E, size: 0x8, addend: 0x0, symName: __ZNKSt3__111__wrap_iterIPK9PredicateE4baseB8ne180100Ev, symObjAddr: 0x100FC, symBinAddr: 0x100011A10, symSize: 0x18 }
  - { offset: 0x2E9A4, size: 0x8, addend: 0x0, symName: __ZNKSt3__111__wrap_iterIP9PredicateE4baseB8ne180100Ev, symObjAddr: 0x10114, symBinAddr: 0x100011A28, symSize: 0x18 }
  - { offset: 0x2E9CA, size: 0x8, addend: 0x0, symName: __ZNSt3__111__wrap_iterIP9PredicateEpLB8ne180100El, symObjAddr: 0x10158, symBinAddr: 0x100011A6C, symSize: 0x30 }
  - { offset: 0x2EA20, size: 0x8, addend: 0x0, symName: __ZNSt3__14pairIP9PredicateS2_EC1B8ne180100IS2_S2_Li0EEEOT_OT0_, symObjAddr: 0x10440, symBinAddr: 0x100011D54, symSize: 0x3C }
  - { offset: 0x2EA7E, size: 0x8, addend: 0x0, symName: __ZNSt3__14pairIP9PredicateS2_EC2B8ne180100IS2_S2_Li0EEEOT_OT0_, symObjAddr: 0x1047C, symBinAddr: 0x100011D90, symSize: 0x34 }
  - { offset: 0x2EADC, size: 0x8, addend: 0x0, symName: __ZNSt3__118__unwrap_iter_implINS_11__wrap_iterIP9PredicateEELb1EE8__unwrapB8ne180100ES4_, symObjAddr: 0x104B0, symBinAddr: 0x100011DC4, symSize: 0x28 }
  - { offset: 0x2EB04, size: 0x8, addend: 0x0, symName: __ZNSt3__119__to_address_helperINS_11__wrap_iterIP9PredicateEEvE6__callB8ne180100ERKS4_, symObjAddr: 0x104FC, symBinAddr: 0x100011E10, symSize: 0x30 }
  - { offset: 0x2EB27, size: 0x8, addend: 0x0, symName: __ZNSt3__114pointer_traitsINS_11__wrap_iterIP9PredicateEEE10to_addressB8ne180100ES4_, symObjAddr: 0x1052C, symBinAddr: 0x100011E40, symSize: 0x2C }
  - { offset: 0x2EB4A, size: 0x8, addend: 0x0, symName: __ZNSt3__129_AllocatorDestroyRangeReverseINS_9allocatorI9PredicateEEPS2_EC1B8ne180100ERS3_RS4_S7_, symObjAddr: 0x105A4, symBinAddr: 0x100011EB8, symSize: 0x44 }
  - { offset: 0x2EBA1, size: 0x8, addend: 0x0, symName: __ZNSt3__116allocator_traitsINS_9allocatorI9PredicateEEE9constructB8ne180100IS2_JRS2_EvEEvRS3_PT_DpOT0_, symObjAddr: 0x105E8, symBinAddr: 0x100011EFC, symSize: 0x34 }
  - { offset: 0x2EBF8, size: 0x8, addend: 0x0, symName: __ZNSt3__128__exception_guard_exceptionsINS_29_AllocatorDestroyRangeReverseINS_9allocatorI9PredicateEEPS3_EEE10__completeB8ne180100Ev, symObjAddr: 0x1061C, symBinAddr: 0x100011F30, symSize: 0x1C }
  - { offset: 0x2EC1E, size: 0x8, addend: 0x0, symName: __ZNSt3__128__exception_guard_exceptionsINS_29_AllocatorDestroyRangeReverseINS_9allocatorI9PredicateEEPS3_EEED1B8ne180100Ev, symObjAddr: 0x10638, symBinAddr: 0x100011F4C, symSize: 0x2C }
  - { offset: 0x2EC48, size: 0x8, addend: 0x0, symName: __ZNSt3__128__exception_guard_exceptionsINS_29_AllocatorDestroyRangeReverseINS_9allocatorI9PredicateEEPS3_EEEC1B8ne180100ES6_, symObjAddr: 0x10664, symBinAddr: 0x100011F78, symSize: 0x34 }
  - { offset: 0x2EC81, size: 0x8, addend: 0x0, symName: __ZNSt3__128__exception_guard_exceptionsINS_29_AllocatorDestroyRangeReverseINS_9allocatorI9PredicateEEPS3_EEEC2B8ne180100ES6_, symObjAddr: 0x10698, symBinAddr: 0x100011FAC, symSize: 0x30 }
  - { offset: 0x2ECBA, size: 0x8, addend: 0x0, symName: __ZNSt3__129_AllocatorDestroyRangeReverseINS_9allocatorI9PredicateEEPS2_EC2B8ne180100ERS3_RS4_S7_, symObjAddr: 0x106C8, symBinAddr: 0x100011FDC, symSize: 0x38 }
  - { offset: 0x2ED11, size: 0x8, addend: 0x0, symName: __ZNSt3__19allocatorI9PredicateE9constructB8ne180100IS1_JRS1_EEEvPT_DpOT0_, symObjAddr: 0x10700, symBinAddr: 0x100012014, symSize: 0x30 }
  - { offset: 0x2ED67, size: 0x8, addend: 0x0, symName: __ZNSt3__128__exception_guard_exceptionsINS_29_AllocatorDestroyRangeReverseINS_9allocatorI9PredicateEEPS3_EEED2B8ne180100Ev, symObjAddr: 0x10730, symBinAddr: 0x100012044, symSize: 0x50 }
  - { offset: 0x2ED91, size: 0x8, addend: 0x0, symName: __ZNKSt3__129_AllocatorDestroyRangeReverseINS_9allocatorI9PredicateEEPS2_EclB8ne180100Ev, symObjAddr: 0x10780, symBinAddr: 0x100012094, symSize: 0x68 }
  - { offset: 0x2EDB7, size: 0x8, addend: 0x0, symName: __ZNSt3__118__unwrap_iter_implIP9PredicateLb1EE8__unwrapB8ne180100ES2_, symObjAddr: 0x10858, symBinAddr: 0x10001216C, symSize: 0x24 }
  - { offset: 0x2EDDA, size: 0x8, addend: 0x0, symName: __ZNSt3__118__unwrap_iter_implIP9PredicateLb1EE8__rewrapB8ne180100ES2_S2_, symObjAddr: 0x1087C, symBinAddr: 0x100012190, symSize: 0x58 }
  - { offset: 0x2EE0B, size: 0x8, addend: 0x0, symName: __ZNKSt3__120__move_backward_loopINS_17_ClassicAlgPolicyEEclB8ne180100IP9PredicateS5_S5_EENS_4pairIT_T1_EES7_T0_S8_, symObjAddr: 0x10AB0, symBinAddr: 0x1000123C4, symSize: 0xA4 }
  - { offset: 0x2EE92, size: 0x8, addend: 0x0, symName: __ZNSt3__18_IterOpsINS_17_ClassicAlgPolicyEE4nextB8ne180100IP9PredicateEET_S6_S6_, symObjAddr: 0x10B80, symBinAddr: 0x100012494, symSize: 0x18 }
  - { offset: 0x2EECE, size: 0x8, addend: 0x0, symName: __ZNSt3__18_IterOpsINS_17_ClassicAlgPolicyEE11__iter_moveB8ne180100IRP9PredicateLi0EEEDTclsr3stdE4movedeclsr3stdE7declvalIRT_EEEEOS7_, symObjAddr: 0x10B98, symBinAddr: 0x1000124AC, symSize: 0x28 }
  - { offset: 0x2EF00, size: 0x8, addend: 0x0, symName: __ZN9PredicateaSEOS_, symObjAddr: 0x10BC0, symBinAddr: 0x1000124D4, symSize: 0x48 }
  - { offset: 0x2EF31, size: 0x8, addend: 0x0, symName: __ZNSt3__18_IterOpsINS_17_ClassicAlgPolicyEE25__validate_iter_referenceB8ne180100IRP9PredicateEEvv, symObjAddr: 0x10C08, symBinAddr: 0x10001251C, symSize: 0x4 }
  - { offset: 0x2EF4F, size: 0x8, addend: 0x0, symName: __ZNSt3__16vectorI9ParameterNS_9allocatorIS1_EEEaSB8ne180100EOS4_, symObjAddr: 0x10C0C, symBinAddr: 0x100012520, symSize: 0x34 }
  - { offset: 0x2EF86, size: 0x8, addend: 0x0, symName: __ZNSt3__16vectorI9ParameterNS_9allocatorIS1_EEE13__move_assignERS4_NS_17integral_constantIbLb1EEE, symObjAddr: 0x10C40, symBinAddr: 0x100012554, symSize: 0x94 }
  - { offset: 0x2EFC9, size: 0x8, addend: 0x0, symName: __ZNSt3__16vectorI9ParameterNS_9allocatorIS1_EEE13__vdeallocateEv, symObjAddr: 0x10CD4, symBinAddr: 0x1000125E8, symSize: 0x94 }
  - { offset: 0x2EFF1, size: 0x8, addend: 0x0, symName: __ZNSt3__16vectorI9ParameterNS_9allocatorIS1_EEE19__move_assign_allocB8ne180100ERS4_, symObjAddr: 0x10D68, symBinAddr: 0x10001267C, symSize: 0x2C }
  - { offset: 0x2F026, size: 0x8, addend: 0x0, symName: __ZNSt3__16vectorI9ParameterNS_9allocatorIS1_EEE5clearB8ne180100Ev, symObjAddr: 0x10D94, symBinAddr: 0x1000126A8, symSize: 0x44 }
  - { offset: 0x2F05B, size: 0x8, addend: 0x0, symName: __ZNKSt3__16vectorI9ParameterNS_9allocatorIS1_EEE17__annotate_shrinkB8ne180100Em, symObjAddr: 0x10DD8, symBinAddr: 0x1000126EC, symSize: 0x14 }
  - { offset: 0x2F090, size: 0x8, addend: 0x0, symName: __ZNSt3__16vectorI9ParameterNS_9allocatorIS1_EEE19__move_assign_allocB8ne180100ERS4_NS_17integral_constantIbLb1EEE, symObjAddr: 0x10DEC, symBinAddr: 0x100012700, symSize: 0x38 }
  - { offset: 0x2F0D1, size: 0x8, addend: 0x0, symName: __ZNKSt3__111__copy_loopINS_17_ClassicAlgPolicyEEclB8ne180100IP9PredicateS5_S5_EENS_4pairIT_T1_EES7_T0_S8_, symObjAddr: 0x10F98, symBinAddr: 0x1000128AC, symSize: 0x88 }
  - { offset: 0x2F13C, size: 0x8, addend: 0x0, symName: __ZN9PredicateaSERKS_, symObjAddr: 0x11094, symBinAddr: 0x1000129A8, symSize: 0x48 }
  - { offset: 0x2F16D, size: 0x8, addend: 0x0, symName: __ZNSt3__16vectorI9ParameterNS_9allocatorIS1_EEEaSB8ne180100ERKS4_, symObjAddr: 0x110DC, symBinAddr: 0x1000129F0, symSize: 0x68 }
  - { offset: 0x2F1A4, size: 0x8, addend: 0x0, symName: __ZNSt3__16vectorI9ParameterNS_9allocatorIS1_EEE19__copy_assign_allocB8ne180100ERKS4_, symObjAddr: 0x11144, symBinAddr: 0x100012A58, symSize: 0x2C }
  - { offset: 0x2F1D9, size: 0x8, addend: 0x0, symName: __ZNSt3__16vectorI9ParameterNS_9allocatorIS1_EEE6assignIPS1_Li0EEEvT_S7_, symObjAddr: 0x11170, symBinAddr: 0x100012A84, symSize: 0x5C }
  - { offset: 0x2F22E, size: 0x8, addend: 0x0, symName: __ZNSt3__16vectorI9ParameterNS_9allocatorIS1_EEE19__copy_assign_allocB8ne180100ERKS4_NS_17integral_constantIbLb0EEE, symObjAddr: 0x111CC, symBinAddr: 0x100012AE0, symSize: 0x14 }
  - { offset: 0x2F26C, size: 0x8, addend: 0x0, symName: __ZNSt3__16vectorI9ParameterNS_9allocatorIS1_EEE18__assign_with_sizeB8ne180100IPS1_S6_EEvT_T0_l, symObjAddr: 0x111E0, symBinAddr: 0x100012AF4, symSize: 0x164 }
  - { offset: 0x2F31C, size: 0x8, addend: 0x0, symName: __ZNSt3__16vectorI9ParameterNS_9allocatorIS1_EEE17__destruct_at_endB8ne180100EPS1_, symObjAddr: 0x11428, symBinAddr: 0x100012D3C, symSize: 0x4C }
  - { offset: 0x2F360, size: 0x8, addend: 0x0, symName: __ZNKSt3__111__copy_loopINS_17_ClassicAlgPolicyEEclB8ne180100IP9ParameterS5_S5_EENS_4pairIT_T1_EES7_T0_S8_, symObjAddr: 0x115D4, symBinAddr: 0x100012EE8, symSize: 0x88 }
  - { offset: 0x2F3CB, size: 0x8, addend: 0x0, symName: __ZN9ParameteraSERKS_, symObjAddr: 0x11688, symBinAddr: 0x100012F9C, symSize: 0x34 }
  - { offset: 0x2F41E, size: 0x8, addend: 0x0, symName: __ZNSt3__14pairINS_11__wrap_iterIP9PredicateEES3_EC1B8ne180100IS4_S3_Li0EEEOT_OT0_, symObjAddr: 0x116E4, symBinAddr: 0x100012FF8, symSize: 0x3C }
  - { offset: 0x2F47C, size: 0x8, addend: 0x0, symName: __ZNSt3__14pairINS_11__wrap_iterIP9PredicateEES3_EC2B8ne180100IS4_S3_Li0EEEOT_OT0_, symObjAddr: 0x11720, symBinAddr: 0x100013034, symSize: 0x34 }
  - { offset: 0x2F4DA, size: 0x8, addend: 0x0, symName: __ZNSt3__118__unwrap_iter_implINS_11__wrap_iterIP9PredicateEELb1EE8__rewrapB8ne180100ES4_S3_, symObjAddr: 0x117A0, symBinAddr: 0x1000130B4, symSize: 0x5C }
  - { offset: 0x2F50B, size: 0x8, addend: 0x0, symName: __ZNKSt3__111__wrap_iterIP9PredicateEplB8ne180100El, symObjAddr: 0x117FC, symBinAddr: 0x100013110, symSize: 0x3C }
  - { offset: 0x2F557, size: 0x8, addend: 0x0, symName: __ZNSt3__114__split_bufferI9PredicateRNS_9allocatorIS1_EEE21_ConstructTransactionC1B8ne180100EPPS1_m, symObjAddr: 0x11838, symBinAddr: 0x10001314C, symSize: 0x3C }
  - { offset: 0x2F59D, size: 0x8, addend: 0x0, symName: __ZNSt3__114__split_bufferI9PredicateRNS_9allocatorIS1_EEE21_ConstructTransactionD1B8ne180100Ev, symObjAddr: 0x11874, symBinAddr: 0x100013188, symSize: 0x2C }
  - { offset: 0x2F5C7, size: 0x8, addend: 0x0, symName: __ZNSt3__114__split_bufferI9PredicateRNS_9allocatorIS1_EEE21_ConstructTransactionC2B8ne180100EPPS1_m, symObjAddr: 0x118A0, symBinAddr: 0x1000131B4, symSize: 0x4C }
  - { offset: 0x2F60D, size: 0x8, addend: 0x0, symName: __ZNSt3__114__split_bufferI9PredicateRNS_9allocatorIS1_EEE21_ConstructTransactionD2B8ne180100Ev, symObjAddr: 0x118EC, symBinAddr: 0x100013200, symSize: 0x20 }
  - { offset: 0x2F637, size: 0x8, addend: 0x0, symName: __ZNSt3__111__wrap_iterIP9PredicateEC1B8ne180100ES2_, symObjAddr: 0x11A00, symBinAddr: 0x100013314, symSize: 0x34 }
  - { offset: 0x2F66F, size: 0x8, addend: 0x0, symName: __ZNSt3__111__wrap_iterIP9PredicateEC2B8ne180100ES2_, symObjAddr: 0x11A34, symBinAddr: 0x100013348, symSize: 0x20 }
  - { offset: 0x2F6A7, size: 0x8, addend: 0x0, symName: __ZNSt3__111__wrap_iterIPK9PredicateEC2B8ne180100IPS1_Li0EEERKNS0_IT_EE, symObjAddr: 0x11ACC, symBinAddr: 0x1000133E0, symSize: 0x3C }
  - { offset: 0x2F6EE, size: 0x8, addend: 0x0, symName: __ZN6Parser4factER14DatalogProgram, symObjAddr: 0x11B50, symBinAddr: 0x100013464, symSize: 0x368 }
  - { offset: 0x2F7A8, size: 0x8, addend: 0x0, symName: __ZN6Parser10stringListER14DatalogProgram, symObjAddr: 0x11EB8, symBinAddr: 0x1000137CC, symSize: 0x1D4 }
  - { offset: 0x2F813, size: 0x8, addend: 0x0, symName: __ZN9Predicate13getParametersEv, symObjAddr: 0x1208C, symBinAddr: 0x1000139A0, symSize: 0x3C }
  - { offset: 0x2F839, size: 0x8, addend: 0x0, symName: __ZNSt3__16vectorI9ParameterNS_9allocatorIS1_EEE5beginB8ne180100Ev, symObjAddr: 0x120C8, symBinAddr: 0x1000139DC, symSize: 0x30 }
  - { offset: 0x2F861, size: 0x8, addend: 0x0, symName: __ZNSt3__16vectorI9ParameterNS_9allocatorIS1_EEE3endB8ne180100Ev, symObjAddr: 0x120F8, symBinAddr: 0x100013A0C, symSize: 0x30 }
  - { offset: 0x2F889, size: 0x8, addend: 0x0, symName: __ZNKSt3__111__wrap_iterIP9ParameterEdeB8ne180100Ev, symObjAddr: 0x1215C, symBinAddr: 0x100013A70, symSize: 0x18 }
  - { offset: 0x2F8AF, size: 0x8, addend: 0x0, symName: __ZN9Parameter8toStringEv, symObjAddr: 0x12174, symBinAddr: 0x100013A88, symSize: 0x38 }
  - { offset: 0x2F8D5, size: 0x8, addend: 0x0, symName: __ZNSt3__13setINS_12basic_stringIcNS_11char_traitsIcEENS_9allocatorIcEEEENS_4lessIS6_EENS4_IS6_EEE6insertB8ne180100EOS6_, symObjAddr: 0x121AC, symBinAddr: 0x100013AC0, symSize: 0x4C }
  - { offset: 0x2F90A, size: 0x8, addend: 0x0, symName: __ZNSt3__111__wrap_iterIP9ParameterEppB8ne180100Ev, symObjAddr: 0x121F8, symBinAddr: 0x100013B0C, symSize: 0x20 }
  - { offset: 0x2F930, size: 0x8, addend: 0x0, symName: __ZNSt3__16vectorI9ParameterNS_9allocatorIS1_EEE11__make_iterB8ne180100EPS1_, symObjAddr: 0x12218, symBinAddr: 0x100013B2C, symSize: 0x30 }
  - { offset: 0x2F965, size: 0x8, addend: 0x0, symName: __ZNSt3__111__wrap_iterIP9ParameterEC1B8ne180100ES2_, symObjAddr: 0x12248, symBinAddr: 0x100013B5C, symSize: 0x34 }
  - { offset: 0x2F99D, size: 0x8, addend: 0x0, symName: __ZNSt3__111__wrap_iterIP9ParameterEC2B8ne180100ES2_, symObjAddr: 0x1227C, symBinAddr: 0x100013B90, symSize: 0x20 }
  - { offset: 0x2F9D5, size: 0x8, addend: 0x0, symName: __ZNKSt3__111__wrap_iterIP9ParameterE4baseB8ne180100Ev, symObjAddr: 0x122E4, symBinAddr: 0x100013BF8, symSize: 0x18 }
  - { offset: 0x2F9FB, size: 0x8, addend: 0x0, symName: __ZNSt3__16__treeINS_12basic_stringIcNS_11char_traitsIcEENS_9allocatorIcEEEENS_4lessIS6_EENS4_IS6_EEE15__insert_uniqueB8ne180100EOS6_, symObjAddr: 0x122FC, symBinAddr: 0x100013C10, symSize: 0x50 }
  - { offset: 0x2FA30, size: 0x8, addend: 0x0, symName: __ZNSt3__14pairINS_21__tree_const_iteratorINS_12basic_stringIcNS_11char_traitsIcEENS_9allocatorIcEEEEPNS_11__tree_nodeIS7_PvEElEEbEC1B8ne180100INS_15__tree_iteratorIS7_SB_lEEbLi0EEEONS0_IT_T0_EE, symObjAddr: 0x1234C, symBinAddr: 0x100013C60, symSize: 0x34 }
  - { offset: 0x2FA80, size: 0x8, addend: 0x0, symName: __ZNSt3__16__treeINS_12basic_stringIcNS_11char_traitsIcEENS_9allocatorIcEEEENS_4lessIS6_EENS4_IS6_EEE25__emplace_unique_key_argsIS6_JS6_EEENS_4pairINS_15__tree_iteratorIS6_PNS_11__tree_nodeIS6_PvEElEEbEERKT_DpOT0_, symObjAddr: 0x12380, symBinAddr: 0x100013C94, symSize: 0xF0 }
  - { offset: 0x2FB2C, size: 0x8, addend: 0x0, symName: __ZNSt3__122__tree_key_value_typesINS_12basic_stringIcNS_11char_traitsIcEENS_9allocatorIcEEEEE9__get_keyB8ne180100ERKS6_, symObjAddr: 0x12470, symBinAddr: 0x100013D84, symSize: 0x14 }
  - { offset: 0x2FB50, size: 0x8, addend: 0x0, symName: __ZNSt3__16__treeINS_12basic_stringIcNS_11char_traitsIcEENS_9allocatorIcEEEENS_4lessIS6_EENS4_IS6_EEE12__find_equalIS6_EERPNS_16__tree_node_baseIPvEERPNS_15__tree_end_nodeISF_EERKT_, symObjAddr: 0x12484, symBinAddr: 0x100013D98, symSize: 0x184 }
  - { offset: 0x2FBBD, size: 0x8, addend: 0x0, symName: __ZNSt3__16__treeINS_12basic_stringIcNS_11char_traitsIcEENS_9allocatorIcEEEENS_4lessIS6_EENS4_IS6_EEE16__construct_nodeIJS6_EEENS_10unique_ptrINS_11__tree_nodeIS6_PvEENS_22__tree_node_destructorINS4_ISF_EEEEEEDpOT_, symObjAddr: 0x12608, symBinAddr: 0x100013F1C, symSize: 0x110 }
  - { offset: 0x2FC1E, size: 0x8, addend: 0x0, symName: __ZNSt3__16__treeINS_12basic_stringIcNS_11char_traitsIcEENS_9allocatorIcEEEENS_4lessIS6_EENS4_IS6_EEE16__insert_node_atEPNS_15__tree_end_nodeIPNS_16__tree_node_baseIPvEEEERSF_SF_, symObjAddr: 0x12718, symBinAddr: 0x10001402C, symSize: 0xCC }
  - { offset: 0x2FC73, size: 0x8, addend: 0x0, symName: __ZNKSt3__110unique_ptrINS_11__tree_nodeINS_12basic_stringIcNS_11char_traitsIcEENS_9allocatorIcEEEEPvEENS_22__tree_node_destructorINS5_IS9_EEEEE3getB8ne180100Ev, symObjAddr: 0x127E4, symBinAddr: 0x1000140F8, symSize: 0x28 }
  - { offset: 0x2FC99, size: 0x8, addend: 0x0, symName: __ZNSt3__110unique_ptrINS_11__tree_nodeINS_12basic_stringIcNS_11char_traitsIcEENS_9allocatorIcEEEEPvEENS_22__tree_node_destructorINS5_IS9_EEEEE7releaseB8ne180100Ev, symObjAddr: 0x1280C, symBinAddr: 0x100014120, symSize: 0x44 }
  - { offset: 0x2FCCE, size: 0x8, addend: 0x0, symName: __ZNSt3__110unique_ptrINS_11__tree_nodeINS_12basic_stringIcNS_11char_traitsIcEENS_9allocatorIcEEEEPvEENS_22__tree_node_destructorINS5_IS9_EEEEED1B8ne180100Ev, symObjAddr: 0x12850, symBinAddr: 0x100014164, symSize: 0x2C }
  - { offset: 0x2FCF8, size: 0x8, addend: 0x0, symName: __ZNSt3__115__tree_iteratorINS_12basic_stringIcNS_11char_traitsIcEENS_9allocatorIcEEEEPNS_11__tree_nodeIS6_PvEElEC1B8ne180100ESA_, symObjAddr: 0x1287C, symBinAddr: 0x100014190, symSize: 0x34 }
  - { offset: 0x2FD37, size: 0x8, addend: 0x0, symName: __ZNSt3__14pairINS_15__tree_iteratorINS_12basic_stringIcNS_11char_traitsIcEENS_9allocatorIcEEEEPNS_11__tree_nodeIS7_PvEElEEbEC1B8ne180100ISC_RbLi0EEEOT_OT0_, symObjAddr: 0x128B0, symBinAddr: 0x1000141C4, symSize: 0x3C }
  - { offset: 0x2FD95, size: 0x8, addend: 0x0, symName: __ZNKSt3__16__treeINS_12basic_stringIcNS_11char_traitsIcEENS_9allocatorIcEEEENS_4lessIS6_EENS4_IS6_EEE6__rootB8ne180100Ev, symObjAddr: 0x128EC, symBinAddr: 0x100014200, symSize: 0x28 }
  - { offset: 0x2FDBB, size: 0x8, addend: 0x0, symName: __ZNKSt3__16__treeINS_12basic_stringIcNS_11char_traitsIcEENS_9allocatorIcEEEENS_4lessIS6_EENS4_IS6_EEE10__root_ptrB8ne180100Ev, symObjAddr: 0x12914, symBinAddr: 0x100014228, symSize: 0x24 }
  - { offset: 0x2FDE1, size: 0x8, addend: 0x0, symName: __ZNSt3__16__treeINS_12basic_stringIcNS_11char_traitsIcEENS_9allocatorIcEEEENS_4lessIS6_EENS4_IS6_EEE10value_compB8ne180100Ev, symObjAddr: 0x12938, symBinAddr: 0x10001424C, symSize: 0x28 }
  - { offset: 0x2FE07, size: 0x8, addend: 0x0, symName: __ZNKSt3__14lessINS_12basic_stringIcNS_11char_traitsIcEENS_9allocatorIcEEEEEclB8ne180100ERKS6_S9_, symObjAddr: 0x12960, symBinAddr: 0x100014274, symSize: 0x34 }
  - { offset: 0x2FE4B, size: 0x8, addend: 0x0, symName: __ZNKSt3__16__treeINS_12basic_stringIcNS_11char_traitsIcEENS_9allocatorIcEEEENS_4lessIS6_EENS4_IS6_EEE10__end_nodeB8ne180100Ev, symObjAddr: 0x12994, symBinAddr: 0x1000142A8, symSize: 0x2C }
  - { offset: 0x2FE71, size: 0x8, addend: 0x0, symName: __ZNKSt3__117__compressed_pairINS_15__tree_end_nodeIPNS_16__tree_node_baseIPvEEEENS_9allocatorINS_11__tree_nodeINS_12basic_stringIcNS_11char_traitsIcEENS7_IcEEEES3_EEEEE5firstB8ne180100Ev, symObjAddr: 0x129C0, symBinAddr: 0x1000142D4, symSize: 0x24 }
  - { offset: 0x2FE97, size: 0x8, addend: 0x0, symName: __ZNKSt3__122__compressed_pair_elemINS_15__tree_end_nodeIPNS_16__tree_node_baseIPvEEEELi0ELb0EE5__getB8ne180100Ev, symObjAddr: 0x129E4, symBinAddr: 0x1000142F8, symSize: 0x14 }
  - { offset: 0x2FEBD, size: 0x8, addend: 0x0, symName: __ZNSt3__117__compressed_pairImNS_4lessINS_12basic_stringIcNS_11char_traitsIcEENS_9allocatorIcEEEEEEE6secondB8ne180100Ev, symObjAddr: 0x129F8, symBinAddr: 0x10001430C, symSize: 0x24 }
  - { offset: 0x2FEE3, size: 0x8, addend: 0x0, symName: __ZNSt3__122__compressed_pair_elemINS_4lessINS_12basic_stringIcNS_11char_traitsIcEENS_9allocatorIcEEEEEELi1ELb1EE5__getB8ne180100Ev, symObjAddr: 0x12A1C, symBinAddr: 0x100014330, symSize: 0x14 }
  - { offset: 0x2FF09, size: 0x8, addend: 0x0, symName: __ZNKSt3__112basic_stringIcNS_11char_traitsIcEENS_9allocatorIcEEE7compareB8ne180100ERKS5_, symObjAddr: 0x12A68, symBinAddr: 0x10001437C, symSize: 0x4C }
  - { offset: 0x2FF40, size: 0x8, addend: 0x0, symName: __ZNKSt3__112basic_stringIcNS_11char_traitsIcEENS_9allocatorIcEEE7compareINS_17basic_string_viewIcS2_EELi0EEEiRKT_, symObjAddr: 0x12AB4, symBinAddr: 0x1000143C8, symSize: 0x12C }
  - { offset: 0x2FFC3, size: 0x8, addend: 0x0, symName: __ZNKSt3__112basic_stringIcNS_11char_traitsIcEENS_9allocatorIcEEEcvNS_17basic_string_viewIcS2_EEB8ne180100Ev, symObjAddr: 0x12BE0, symBinAddr: 0x1000144F4, symSize: 0x50 }
  - { offset: 0x2FFE9, size: 0x8, addend: 0x0, symName: __ZNKSt3__117basic_string_viewIcNS_11char_traitsIcEEE4sizeB8ne180100Ev, symObjAddr: 0x12C30, symBinAddr: 0x100014544, symSize: 0x18 }
  - { offset: 0x3000F, size: 0x8, addend: 0x0, symName: __ZNSt3__111char_traitsIcE7compareB8ne180100EPKcS3_m, symObjAddr: 0x12C48, symBinAddr: 0x10001455C, symSize: 0x34 }
  - { offset: 0x3004E, size: 0x8, addend: 0x0, symName: __ZNKSt3__112basic_stringIcNS_11char_traitsIcEENS_9allocatorIcEEE4dataB8ne180100Ev, symObjAddr: 0x12C7C, symBinAddr: 0x100014590, symSize: 0x28 }
  - { offset: 0x30074, size: 0x8, addend: 0x0, symName: __ZNKSt3__117basic_string_viewIcNS_11char_traitsIcEEE4dataB8ne180100Ev, symObjAddr: 0x12CA4, symBinAddr: 0x1000145B8, symSize: 0x18 }
  - { offset: 0x3009A, size: 0x8, addend: 0x0, symName: __ZNKSt3__112basic_stringIcNS_11char_traitsIcEENS_9allocatorIcEEE13__get_pointerB8ne180100Ev, symObjAddr: 0x12CD0, symBinAddr: 0x1000145E4, symSize: 0x54 }
  - { offset: 0x300C0, size: 0x8, addend: 0x0, symName: __ZNKSt3__112basic_stringIcNS_11char_traitsIcEENS_9allocatorIcEEE18__get_long_pointerB8ne180100Ev, symObjAddr: 0x12D24, symBinAddr: 0x100014638, symSize: 0x28 }
  - { offset: 0x300E6, size: 0x8, addend: 0x0, symName: __ZNKSt3__112basic_stringIcNS_11char_traitsIcEENS_9allocatorIcEEE19__get_short_pointerB8ne180100Ev, symObjAddr: 0x12D4C, symBinAddr: 0x100014660, symSize: 0x28 }
  - { offset: 0x3010C, size: 0x8, addend: 0x0, symName: __ZNSt3__114pointer_traitsIPKcE10pointer_toB8ne180100ERS1_, symObjAddr: 0x12D74, symBinAddr: 0x100014688, symSize: 0x14 }
  - { offset: 0x3012F, size: 0x8, addend: 0x0, symName: __ZNSt3__117basic_string_viewIcNS_11char_traitsIcEEEC1B8ne180100EPKcm, symObjAddr: 0x12D88, symBinAddr: 0x10001469C, symSize: 0x3C }
  - { offset: 0x30177, size: 0x8, addend: 0x0, symName: __ZNSt3__117basic_string_viewIcNS_11char_traitsIcEEEC2B8ne180100EPKcm, symObjAddr: 0x12DC4, symBinAddr: 0x1000146D8, symSize: 0x2C }
  - { offset: 0x301BF, size: 0x8, addend: 0x0, symName: __ZNSt3__16__treeINS_12basic_stringIcNS_11char_traitsIcEENS_9allocatorIcEEEENS_4lessIS6_EENS4_IS6_EEE12__node_allocB8ne180100Ev, symObjAddr: 0x12DF0, symBinAddr: 0x100014704, symSize: 0x28 }
  - { offset: 0x301E5, size: 0x8, addend: 0x0, symName: __ZNSt3__116allocator_traitsINS_9allocatorINS_11__tree_nodeINS_12basic_stringIcNS_11char_traitsIcEENS1_IcEEEEPvEEEEE8allocateB8ne180100ERSA_m, symObjAddr: 0x12E18, symBinAddr: 0x10001472C, symSize: 0x2C }
  - { offset: 0x30218, size: 0x8, addend: 0x0, symName: __ZNSt3__122__tree_node_destructorINS_9allocatorINS_11__tree_nodeINS_12basic_stringIcNS_11char_traitsIcEENS1_IcEEEEPvEEEEEC1B8ne180100ERSA_b, symObjAddr: 0x12E44, symBinAddr: 0x100014758, symSize: 0x48 }
  - { offset: 0x30266, size: 0x8, addend: 0x0, symName: __ZNSt3__110unique_ptrINS_11__tree_nodeINS_12basic_stringIcNS_11char_traitsIcEENS_9allocatorIcEEEEPvEENS_22__tree_node_destructorINS5_IS9_EEEEEC1B8ne180100ILb1EvEEPS9_NS_16__dependent_typeINS_27__unique_ptr_deleter_sfinaeISC_EEXT_EE20__good_rval_ref_typeE, symObjAddr: 0x12E8C, symBinAddr: 0x1000147A0, symSize: 0x3C }
  - { offset: 0x302B7, size: 0x8, addend: 0x0, symName: __ZNSt3__116allocator_traitsINS_9allocatorINS_11__tree_nodeINS_12basic_stringIcNS_11char_traitsIcEENS1_IcEEEEPvEEEEE9constructB8ne180100IS7_JS7_EvEEvRSA_PT_DpOT0_, symObjAddr: 0x12EC8, symBinAddr: 0x1000147DC, symSize: 0x34 }
  - { offset: 0x3030E, size: 0x8, addend: 0x0, symName: __ZNSt3__122__tree_key_value_typesINS_12basic_stringIcNS_11char_traitsIcEENS_9allocatorIcEEEEE9__get_ptrB8ne180100ERS6_, symObjAddr: 0x12EFC, symBinAddr: 0x100014810, symSize: 0x14 }
  - { offset: 0x30332, size: 0x8, addend: 0x0, symName: __ZNKSt3__110unique_ptrINS_11__tree_nodeINS_12basic_stringIcNS_11char_traitsIcEENS_9allocatorIcEEEEPvEENS_22__tree_node_destructorINS5_IS9_EEEEEptB8ne180100Ev, symObjAddr: 0x12F10, symBinAddr: 0x100014824, symSize: 0x28 }
  - { offset: 0x30358, size: 0x8, addend: 0x0, symName: __ZNSt3__110unique_ptrINS_11__tree_nodeINS_12basic_stringIcNS_11char_traitsIcEENS_9allocatorIcEEEEPvEENS_22__tree_node_destructorINS5_IS9_EEEEE11get_deleterB8ne180100Ev, symObjAddr: 0x12F38, symBinAddr: 0x10001484C, symSize: 0x24 }
  - { offset: 0x3037E, size: 0x8, addend: 0x0, symName: __ZNSt3__117__compressed_pairINS_15__tree_end_nodeIPNS_16__tree_node_baseIPvEEEENS_9allocatorINS_11__tree_nodeINS_12basic_stringIcNS_11char_traitsIcEENS7_IcEEEES3_EEEEE6secondB8ne180100Ev, symObjAddr: 0x12F5C, symBinAddr: 0x100014870, symSize: 0x24 }
  - { offset: 0x303A4, size: 0x8, addend: 0x0, symName: __ZNSt3__122__compressed_pair_elemINS_9allocatorINS_11__tree_nodeINS_12basic_stringIcNS_11char_traitsIcEENS1_IcEEEEPvEEEELi1ELb1EE5__getB8ne180100Ev, symObjAddr: 0x12F80, symBinAddr: 0x100014894, symSize: 0x14 }
  - { offset: 0x303CA, size: 0x8, addend: 0x0, symName: __ZNSt3__19allocatorINS_11__tree_nodeINS_12basic_stringIcNS_11char_traitsIcEENS0_IcEEEEPvEEE8allocateB8ne180100Em, symObjAddr: 0x12F94, symBinAddr: 0x1000148A8, symSize: 0x5C }
  - { offset: 0x30409, size: 0x8, addend: 0x0, symName: __ZNSt3__116allocator_traitsINS_9allocatorINS_11__tree_nodeINS_12basic_stringIcNS_11char_traitsIcEENS1_IcEEEEPvEEEEE8max_sizeB8ne180100ISA_vEEmRKSA_, symObjAddr: 0x12FF0, symBinAddr: 0x100014904, symSize: 0x24 }
  - { offset: 0x30437, size: 0x8, addend: 0x0, symName: __ZNKSt3__19allocatorINS_11__tree_nodeINS_12basic_stringIcNS_11char_traitsIcEENS0_IcEEEEPvEEE8max_sizeB8ne180100Ev, symObjAddr: 0x13014, symBinAddr: 0x100014928, symSize: 0x20 }
  - { offset: 0x3045D, size: 0x8, addend: 0x0, symName: __ZNSt3__122__tree_node_destructorINS_9allocatorINS_11__tree_nodeINS_12basic_stringIcNS_11char_traitsIcEENS1_IcEEEEPvEEEEEC2B8ne180100ERSA_b, symObjAddr: 0x13034, symBinAddr: 0x100014948, symSize: 0x38 }
  - { offset: 0x304A5, size: 0x8, addend: 0x0, symName: __ZNSt3__110unique_ptrINS_11__tree_nodeINS_12basic_stringIcNS_11char_traitsIcEENS_9allocatorIcEEEEPvEENS_22__tree_node_destructorINS5_IS9_EEEEEC2B8ne180100ILb1EvEEPS9_NS_16__dependent_typeINS_27__unique_ptr_deleter_sfinaeISC_EEXT_EE20__good_rval_ref_typeE, symObjAddr: 0x1306C, symBinAddr: 0x100014980, symSize: 0x48 }
  - { offset: 0x304F6, size: 0x8, addend: 0x0, symName: __ZNSt3__117__compressed_pairIPNS_11__tree_nodeINS_12basic_stringIcNS_11char_traitsIcEENS_9allocatorIcEEEEPvEENS_22__tree_node_destructorINS5_IS9_EEEEEC1B8ne180100IRSA_SD_EEOT_OT0_, symObjAddr: 0x130B4, symBinAddr: 0x1000149C8, symSize: 0x3C }
  - { offset: 0x3054E, size: 0x8, addend: 0x0, symName: __ZNSt3__117__compressed_pairIPNS_11__tree_nodeINS_12basic_stringIcNS_11char_traitsIcEENS_9allocatorIcEEEEPvEENS_22__tree_node_destructorINS5_IS9_EEEEEC2B8ne180100IRSA_SD_EEOT_OT0_, symObjAddr: 0x130F0, symBinAddr: 0x100014A04, symSize: 0x48 }
  - { offset: 0x305A6, size: 0x8, addend: 0x0, symName: __ZNSt3__122__compressed_pair_elemIPNS_11__tree_nodeINS_12basic_stringIcNS_11char_traitsIcEENS_9allocatorIcEEEEPvEELi0ELb0EEC2B8ne180100IRSA_vEEOT_, symObjAddr: 0x13138, symBinAddr: 0x100014A4C, symSize: 0x24 }
  - { offset: 0x305E8, size: 0x8, addend: 0x0, symName: __ZNSt3__122__compressed_pair_elemINS_22__tree_node_destructorINS_9allocatorINS_11__tree_nodeINS_12basic_stringIcNS_11char_traitsIcEENS2_IcEEEEPvEEEEEELi1ELb0EEC2B8ne180100ISC_vEEOT_, symObjAddr: 0x1315C, symBinAddr: 0x100014A70, symSize: 0x24 }
  - { offset: 0x3062A, size: 0x8, addend: 0x0, symName: __ZNSt3__19allocatorINS_11__tree_nodeINS_12basic_stringIcNS_11char_traitsIcEENS0_IcEEEEPvEEE9constructB8ne180100IS6_JS6_EEEvPT_DpOT0_, symObjAddr: 0x13180, symBinAddr: 0x100014A94, symSize: 0x30 }
  - { offset: 0x30680, size: 0x8, addend: 0x0, symName: __ZNKSt3__117__compressed_pairIPNS_11__tree_nodeINS_12basic_stringIcNS_11char_traitsIcEENS_9allocatorIcEEEEPvEENS_22__tree_node_destructorINS5_IS9_EEEEE5firstB8ne180100Ev, symObjAddr: 0x131B0, symBinAddr: 0x100014AC4, symSize: 0x24 }
  - { offset: 0x306A6, size: 0x8, addend: 0x0, symName: __ZNKSt3__122__compressed_pair_elemIPNS_11__tree_nodeINS_12basic_stringIcNS_11char_traitsIcEENS_9allocatorIcEEEEPvEELi0ELb0EE5__getB8ne180100Ev, symObjAddr: 0x131D4, symBinAddr: 0x100014AE8, symSize: 0x14 }
  - { offset: 0x306CC, size: 0x8, addend: 0x0, symName: __ZNSt3__117__compressed_pairIPNS_11__tree_nodeINS_12basic_stringIcNS_11char_traitsIcEENS_9allocatorIcEEEEPvEENS_22__tree_node_destructorINS5_IS9_EEEEE6secondB8ne180100Ev, symObjAddr: 0x131E8, symBinAddr: 0x100014AFC, symSize: 0x28 }
  - { offset: 0x306F2, size: 0x8, addend: 0x0, symName: __ZNSt3__122__compressed_pair_elemINS_22__tree_node_destructorINS_9allocatorINS_11__tree_nodeINS_12basic_stringIcNS_11char_traitsIcEENS2_IcEEEEPvEEEEEELi1ELb0EE5__getB8ne180100Ev, symObjAddr: 0x13210, symBinAddr: 0x100014B24, symSize: 0x14 }
  - { offset: 0x30718, size: 0x8, addend: 0x0, symName: __ZNSt3__16__treeINS_12basic_stringIcNS_11char_traitsIcEENS_9allocatorIcEEEENS_4lessIS6_EENS4_IS6_EEE4sizeB8ne180100Ev, symObjAddr: 0x13550, symBinAddr: 0x100014E64, symSize: 0x28 }
  - { offset: 0x3073E, size: 0x8, addend: 0x0, symName: __ZNKSt3__116__tree_node_baseIPvE15__parent_unsafeB8ne180100Ev, symObjAddr: 0x13578, symBinAddr: 0x100014E8C, symSize: 0x18 }
  - { offset: 0x30764, size: 0x8, addend: 0x0, symName: __ZNSt3__116__tree_node_baseIPvE12__set_parentB8ne180100EPS2_, symObjAddr: 0x13760, symBinAddr: 0x100015074, symSize: 0x20 }
  - { offset: 0x30799, size: 0x8, addend: 0x0, symName: __ZNSt3__117__compressed_pairImNS_4lessINS_12basic_stringIcNS_11char_traitsIcEENS_9allocatorIcEEEEEEE5firstB8ne180100Ev, symObjAddr: 0x13780, symBinAddr: 0x100015094, symSize: 0x24 }
  - { offset: 0x307BF, size: 0x8, addend: 0x0, symName: __ZNSt3__122__compressed_pair_elemImLi0ELb0EE5__getB8ne180100Ev, symObjAddr: 0x137A4, symBinAddr: 0x1000150B8, symSize: 0x14 }
  - { offset: 0x307E5, size: 0x8, addend: 0x0, symName: __ZNSt3__117__compressed_pairIPNS_11__tree_nodeINS_12basic_stringIcNS_11char_traitsIcEENS_9allocatorIcEEEEPvEENS_22__tree_node_destructorINS5_IS9_EEEEE5firstB8ne180100Ev, symObjAddr: 0x137B8, symBinAddr: 0x1000150CC, symSize: 0x24 }
  - { offset: 0x3080B, size: 0x8, addend: 0x0, symName: __ZNSt3__122__compressed_pair_elemIPNS_11__tree_nodeINS_12basic_stringIcNS_11char_traitsIcEENS_9allocatorIcEEEEPvEELi0ELb0EE5__getB8ne180100Ev, symObjAddr: 0x137DC, symBinAddr: 0x1000150F0, symSize: 0x14 }
  - { offset: 0x30831, size: 0x8, addend: 0x0, symName: __ZNSt3__110unique_ptrINS_11__tree_nodeINS_12basic_stringIcNS_11char_traitsIcEENS_9allocatorIcEEEEPvEENS_22__tree_node_destructorINS5_IS9_EEEEED2B8ne180100Ev, symObjAddr: 0x137F0, symBinAddr: 0x100015104, symSize: 0x30 }
  - { offset: 0x3085B, size: 0x8, addend: 0x0, symName: __ZNSt3__110unique_ptrINS_11__tree_nodeINS_12basic_stringIcNS_11char_traitsIcEENS_9allocatorIcEEEEPvEENS_22__tree_node_destructorINS5_IS9_EEEEE5resetB8ne180100EPS9_, symObjAddr: 0x13820, symBinAddr: 0x100015134, symSize: 0x78 }
  - { offset: 0x3089F, size: 0x8, addend: 0x0, symName: __ZNSt3__122__tree_node_destructorINS_9allocatorINS_11__tree_nodeINS_12basic_stringIcNS_11char_traitsIcEENS1_IcEEEEPvEEEEEclB8ne180100EPS9_, symObjAddr: 0x13898, symBinAddr: 0x1000151AC, symSize: 0x90 }
  - { offset: 0x308D4, size: 0x8, addend: 0x0, symName: __ZNSt3__116allocator_traitsINS_9allocatorINS_11__tree_nodeINS_12basic_stringIcNS_11char_traitsIcEENS1_IcEEEEPvEEEEE7destroyB8ne180100IS7_vvEEvRSA_PT_, symObjAddr: 0x13928, symBinAddr: 0x10001523C, symSize: 0x28 }
  - { offset: 0x3090F, size: 0x8, addend: 0x0, symName: __ZNSt3__116allocator_traitsINS_9allocatorINS_11__tree_nodeINS_12basic_stringIcNS_11char_traitsIcEENS1_IcEEEEPvEEEEE10deallocateB8ne180100ERSA_PS9_m, symObjAddr: 0x13950, symBinAddr: 0x100015264, symSize: 0x34 }
  - { offset: 0x30951, size: 0x8, addend: 0x0, symName: __ZNSt3__19allocatorINS_11__tree_nodeINS_12basic_stringIcNS_11char_traitsIcEENS0_IcEEEEPvEEE10deallocateB8ne180100EPS8_m, symObjAddr: 0x139A8, symBinAddr: 0x1000152BC, symSize: 0x44 }
  - { offset: 0x30993, size: 0x8, addend: 0x0, symName: __ZNSt3__115__tree_iteratorINS_12basic_stringIcNS_11char_traitsIcEENS_9allocatorIcEEEEPNS_11__tree_nodeIS6_PvEElEC2B8ne180100ESA_, symObjAddr: 0x139EC, symBinAddr: 0x100015300, symSize: 0x20 }
  - { offset: 0x309CC, size: 0x8, addend: 0x0, symName: __ZNSt3__14pairINS_15__tree_iteratorINS_12basic_stringIcNS_11char_traitsIcEENS_9allocatorIcEEEEPNS_11__tree_nodeIS7_PvEElEEbEC2B8ne180100ISC_RbLi0EEEOT_OT0_, symObjAddr: 0x13A0C, symBinAddr: 0x100015320, symSize: 0x38 }
  - { offset: 0x30A2A, size: 0x8, addend: 0x0, symName: __ZNSt3__14pairINS_21__tree_const_iteratorINS_12basic_stringIcNS_11char_traitsIcEENS_9allocatorIcEEEEPNS_11__tree_nodeIS7_PvEElEEbEC2B8ne180100INS_15__tree_iteratorIS7_SB_lEEbLi0EEEONS0_IT_T0_EE, symObjAddr: 0x13A44, symBinAddr: 0x100015358, symSize: 0x50 }
  - { offset: 0x30A7A, size: 0x8, addend: 0x0, symName: __ZNSt3__121__tree_const_iteratorINS_12basic_stringIcNS_11char_traitsIcEENS_9allocatorIcEEEEPNS_11__tree_nodeIS6_PvEElEC1B8ne180100ENS_15__tree_iteratorIS6_SA_lEE, symObjAddr: 0x13A94, symBinAddr: 0x1000153A8, symSize: 0x34 }
  - { offset: 0x30AB3, size: 0x8, addend: 0x0, symName: __ZNSt3__121__tree_const_iteratorINS_12basic_stringIcNS_11char_traitsIcEENS_9allocatorIcEEEEPNS_11__tree_nodeIS6_PvEElEC2B8ne180100ENS_15__tree_iteratorIS6_SA_lEE, symObjAddr: 0x13AC8, symBinAddr: 0x1000153DC, symSize: 0x20 }
  - { offset: 0x30AEC, size: 0x8, addend: 0x0, symName: __ZN6Parser4ruleER14DatalogProgram, symObjAddr: 0x13AE8, symBinAddr: 0x1000153FC, symSize: 0x28C }
  - { offset: 0x30BA7, size: 0x8, addend: 0x0, symName: __ZNSt3__16vectorI4RuleNS_9allocatorIS1_EEE9push_backB8ne180100ERKS1_, symObjAddr: 0x13D74, symBinAddr: 0x100015688, symSize: 0x90 }
  - { offset: 0x30BED, size: 0x8, addend: 0x0, symName: __ZNSt3__16vectorI4RuleNS_9allocatorIS1_EEE6insertINS_11__wrap_iterIPS1_EELi0EEES8_NS6_IPKS1_EET_SC_, symObjAddr: 0x13E04, symBinAddr: 0x100015718, symSize: 0x84 }
  - { offset: 0x30C57, size: 0x8, addend: 0x0, symName: __ZNSt3__111__wrap_iterIPK4RuleEC1B8ne180100IPS1_Li0EEERKNS0_IT_EE, symObjAddr: 0x13E88, symBinAddr: 0x10001579C, symSize: 0x34 }
  - { offset: 0x30C9E, size: 0x8, addend: 0x0, symName: __ZN6Parser13headPredicateER14DatalogProgram, symObjAddr: 0x13EBC, symBinAddr: 0x1000157D0, symSize: 0x3E8 }
  - { offset: 0x30D9D, size: 0x8, addend: 0x0, symName: __ZN6Parser9predicateER14DatalogProgram, symObjAddr: 0x142A4, symBinAddr: 0x100015BB8, symSize: 0x300 }
  - { offset: 0x30EAA, size: 0x8, addend: 0x0, symName: __ZN4RuleC1E9Predicate, symObjAddr: 0x145A4, symBinAddr: 0x100015EB8, symSize: 0x34 }
  - { offset: 0x30EE3, size: 0x8, addend: 0x0, symName: __ZN4Rule12addPredicateE9Predicate, symObjAddr: 0x145D8, symBinAddr: 0x100015EEC, symSize: 0x30 }
  - { offset: 0x30F18, size: 0x8, addend: 0x0, symName: __ZN6Parser13predicateListER14DatalogProgram, symObjAddr: 0x14608, symBinAddr: 0x100015F1C, symSize: 0x1B4 }
  - { offset: 0x30F83, size: 0x8, addend: 0x0, symName: __ZNSt3__16vectorI9ParameterNS_9allocatorIS1_EEE9push_backB8ne180100EOS1_, symObjAddr: 0x147BC, symBinAddr: 0x1000160D0, symSize: 0x90 }
  - { offset: 0x30FC9, size: 0x8, addend: 0x0, symName: __ZNSt3__16vectorI9ParameterNS_9allocatorIS1_EEE22__construct_one_at_endB8ne180100IJS1_EEEvDpOT_, symObjAddr: 0x1484C, symBinAddr: 0x100016160, symSize: 0x90 }
  - { offset: 0x31018, size: 0x8, addend: 0x0, symName: __ZNSt3__16vectorI9ParameterNS_9allocatorIS1_EEE21__push_back_slow_pathIS1_EEPS1_OT_, symObjAddr: 0x148DC, symBinAddr: 0x1000161F0, symSize: 0xE8 }
  - { offset: 0x31076, size: 0x8, addend: 0x0, symName: __ZN6Parser9parameterER14DatalogProgram, symObjAddr: 0x149C4, symBinAddr: 0x1000162D8, symSize: 0x1A0 }
  - { offset: 0x310D5, size: 0x8, addend: 0x0, symName: __ZN6Parser13parameterListER14DatalogProgram, symObjAddr: 0x14B64, symBinAddr: 0x100016478, symSize: 0x1B4 }
  - { offset: 0x31140, size: 0x8, addend: 0x0, symName: __ZNSt3__16vectorI9ParameterNS_9allocatorIS1_EEE6insertINS_11__wrap_iterIPS1_EELi0EEES8_NS6_IPKS1_EET_SC_, symObjAddr: 0x14D18, symBinAddr: 0x10001662C, symSize: 0x84 }
  - { offset: 0x311AA, size: 0x8, addend: 0x0, symName: __ZNSt3__111__wrap_iterIPK9ParameterEC1B8ne180100IPS1_Li0EEERKNS0_IT_EE, symObjAddr: 0x14D9C, symBinAddr: 0x1000166B0, symSize: 0x34 }
  - { offset: 0x311F1, size: 0x8, addend: 0x0, symName: __ZNSt3__16vectorI9ParameterNS_9allocatorIS1_EEE18__insert_with_sizeB8ne180100INS_11__wrap_iterIPS1_EES8_EES8_NS6_IPKS1_EET_T0_l, symObjAddr: 0x14DD0, symBinAddr: 0x1000166E4, symSize: 0x320 }
  - { offset: 0x31319, size: 0x8, addend: 0x0, symName: __ZNSt3__16vectorI9ParameterNS_9allocatorIS1_EEE18__construct_at_endINS_11__wrap_iterIPS1_EES8_EEvT_T0_m, symObjAddr: 0x151E8, symBinAddr: 0x100016AFC, symSize: 0x9C }
  - { offset: 0x3138F, size: 0x8, addend: 0x0, symName: __ZNSt3__16vectorI9ParameterNS_9allocatorIS1_EEE12__move_rangeEPS1_S5_S5_, symObjAddr: 0x15284, symBinAddr: 0x100016B98, symSize: 0x13C }
  - { offset: 0x3144B, size: 0x8, addend: 0x0, symName: __ZNSt3__114__split_bufferI9ParameterRNS_9allocatorIS1_EEE28__construct_at_end_with_sizeINS_11__wrap_iterIPS1_EEEEvT_m, symObjAddr: 0x15410, symBinAddr: 0x100016D24, symSize: 0xD0 }
  - { offset: 0x314A7, size: 0x8, addend: 0x0, symName: __ZNKSt3__111__wrap_iterIPK9ParameterE4baseB8ne180100Ev, symObjAddr: 0x1562C, symBinAddr: 0x100016F40, symSize: 0x18 }
  - { offset: 0x314CD, size: 0x8, addend: 0x0, symName: __ZNSt3__111__wrap_iterIP9ParameterEpLB8ne180100El, symObjAddr: 0x15670, symBinAddr: 0x100016F84, symSize: 0x30 }
  - { offset: 0x31501, size: 0x8, addend: 0x0, symName: __ZNSt3__118__unwrap_iter_implINS_11__wrap_iterIP9ParameterEELb1EE8__unwrapB8ne180100ES4_, symObjAddr: 0x157CC, symBinAddr: 0x1000170E0, symSize: 0x28 }
  - { offset: 0x31529, size: 0x8, addend: 0x0, symName: __ZNSt3__119__to_address_helperINS_11__wrap_iterIP9ParameterEEvE6__callB8ne180100ERKS4_, symObjAddr: 0x15818, symBinAddr: 0x10001712C, symSize: 0x30 }
  - { offset: 0x3154C, size: 0x8, addend: 0x0, symName: __ZNSt3__114pointer_traitsINS_11__wrap_iterIP9ParameterEEE10to_addressB8ne180100ES4_, symObjAddr: 0x15848, symBinAddr: 0x10001715C, symSize: 0x2C }
  - { offset: 0x3156F, size: 0x8, addend: 0x0, symName: __ZNKSt3__120__move_backward_loopINS_17_ClassicAlgPolicyEEclB8ne180100IP9ParameterS5_S5_EENS_4pairIT_T1_EES7_T0_S8_, symObjAddr: 0x159F0, symBinAddr: 0x100017304, symSize: 0xA4 }
  - { offset: 0x315F6, size: 0x8, addend: 0x0, symName: __ZNSt3__18_IterOpsINS_17_ClassicAlgPolicyEE4nextB8ne180100IP9ParameterEET_S6_S6_, symObjAddr: 0x15A94, symBinAddr: 0x1000173A8, symSize: 0x18 }
  - { offset: 0x31632, size: 0x8, addend: 0x0, symName: __ZNSt3__18_IterOpsINS_17_ClassicAlgPolicyEE11__iter_moveB8ne180100IRP9ParameterLi0EEEDTclsr3stdE4movedeclsr3stdE7declvalIRT_EEEEOS7_, symObjAddr: 0x15AAC, symBinAddr: 0x1000173C0, symSize: 0x28 }
  - { offset: 0x31664, size: 0x8, addend: 0x0, symName: __ZN9ParameteraSEOS_, symObjAddr: 0x15AD4, symBinAddr: 0x1000173E8, symSize: 0x34 }
  - { offset: 0x31695, size: 0x8, addend: 0x0, symName: __ZNSt3__18_IterOpsINS_17_ClassicAlgPolicyEE25__validate_iter_referenceB8ne180100IRP9ParameterEEvv, symObjAddr: 0x15B08, symBinAddr: 0x10001741C, symSize: 0x4 }
  - { offset: 0x316D5, size: 0x8, addend: 0x0, symName: __ZNSt3__14pairINS_11__wrap_iterIP9ParameterEES3_EC1B8ne180100IS4_S3_Li0EEEOT_OT0_, symObjAddr: 0x15CF4, symBinAddr: 0x100017608, symSize: 0x3C }
  - { offset: 0x31733, size: 0x8, addend: 0x0, symName: __ZNSt3__14pairINS_11__wrap_iterIP9ParameterEES3_EC2B8ne180100IS4_S3_Li0EEEOT_OT0_, symObjAddr: 0x15D30, symBinAddr: 0x100017644, symSize: 0x34 }
  - { offset: 0x31791, size: 0x8, addend: 0x0, symName: __ZNSt3__118__unwrap_iter_implINS_11__wrap_iterIP9ParameterEELb1EE8__rewrapB8ne180100ES4_S3_, symObjAddr: 0x15DB0, symBinAddr: 0x1000176C4, symSize: 0x5C }
  - { offset: 0x317C2, size: 0x8, addend: 0x0, symName: __ZNKSt3__111__wrap_iterIP9ParameterEplB8ne180100El, symObjAddr: 0x15E0C, symBinAddr: 0x100017720, symSize: 0x3C }
  - { offset: 0x3180E, size: 0x8, addend: 0x0, symName: __ZNSt3__114__split_bufferI9ParameterRNS_9allocatorIS1_EEE21_ConstructTransactionC1B8ne180100EPPS1_m, symObjAddr: 0x15E48, symBinAddr: 0x10001775C, symSize: 0x3C }
  - { offset: 0x31854, size: 0x8, addend: 0x0, symName: __ZNSt3__114__split_bufferI9ParameterRNS_9allocatorIS1_EEE21_ConstructTransactionD1B8ne180100Ev, symObjAddr: 0x15E84, symBinAddr: 0x100017798, symSize: 0x2C }
  - { offset: 0x3187E, size: 0x8, addend: 0x0, symName: __ZNSt3__114__split_bufferI9ParameterRNS_9allocatorIS1_EEE21_ConstructTransactionC2B8ne180100EPPS1_m, symObjAddr: 0x15EB0, symBinAddr: 0x1000177C4, symSize: 0x4C }
  - { offset: 0x318C4, size: 0x8, addend: 0x0, symName: __ZNSt3__114__split_bufferI9ParameterRNS_9allocatorIS1_EEE21_ConstructTransactionD2B8ne180100Ev, symObjAddr: 0x15EFC, symBinAddr: 0x100017810, symSize: 0x20 }
  - { offset: 0x318EE, size: 0x8, addend: 0x0, symName: __ZNSt3__111__wrap_iterIPK9ParameterEC2B8ne180100IPS1_Li0EEERKNS0_IT_EE, symObjAddr: 0x16088, symBinAddr: 0x10001799C, symSize: 0x3C }
  - { offset: 0x31935, size: 0x8, addend: 0x0, symName: __ZN4RuleC2E9Predicate, symObjAddr: 0x160C4, symBinAddr: 0x1000179D8, symSize: 0x40 }
  - { offset: 0x3196E, size: 0x8, addend: 0x0, symName: __ZNSt3__16vectorI4RuleNS_9allocatorIS1_EEE9__end_capB8ne180100Ev, symObjAddr: 0x16104, symBinAddr: 0x100017A18, symSize: 0x28 }
  - { offset: 0x31994, size: 0x8, addend: 0x0, symName: __ZNSt3__16vectorI4RuleNS_9allocatorIS1_EEE22__construct_one_at_endB8ne180100IJRKS1_EEEvDpOT_, symObjAddr: 0x1612C, symBinAddr: 0x100017A40, symSize: 0x90 }
  - { offset: 0x319E3, size: 0x8, addend: 0x0, symName: __ZNSt3__16vectorI4RuleNS_9allocatorIS1_EEE21__push_back_slow_pathIRKS1_EEPS1_OT_, symObjAddr: 0x161BC, symBinAddr: 0x100017AD0, symSize: 0xE8 }
  - { offset: 0x31A41, size: 0x8, addend: 0x0, symName: __ZNSt3__117__compressed_pairIP4RuleNS_9allocatorIS1_EEE5firstB8ne180100Ev, symObjAddr: 0x162A4, symBinAddr: 0x100017BB8, symSize: 0x24 }
  - { offset: 0x31A67, size: 0x8, addend: 0x0, symName: __ZNSt3__122__compressed_pair_elemIP4RuleLi0ELb0EE5__getB8ne180100Ev, symObjAddr: 0x162C8, symBinAddr: 0x100017BDC, symSize: 0x14 }
  - { offset: 0x31AA8, size: 0x8, addend: 0x0, symName: __ZNSt3__16vectorI4RuleNS_9allocatorIS1_EEE21_ConstructTransactionC1B8ne180100ERS4_m, symObjAddr: 0x162DC, symBinAddr: 0x100017BF0, symSize: 0x3C }
  - { offset: 0x31AF0, size: 0x8, addend: 0x0, symName: __ZNSt3__116allocator_traitsINS_9allocatorI4RuleEEE9constructB8ne180100IS2_JRKS2_EvEEvRS3_PT_DpOT0_, symObjAddr: 0x16318, symBinAddr: 0x100017C2C, symSize: 0x34 }
  - { offset: 0x31B47, size: 0x8, addend: 0x0, symName: __ZNSt3__16vectorI4RuleNS_9allocatorIS1_EEE7__allocB8ne180100Ev, symObjAddr: 0x1634C, symBinAddr: 0x100017C60, symSize: 0x28 }
  - { offset: 0x31B6D, size: 0x8, addend: 0x0, symName: __ZNSt3__16vectorI4RuleNS_9allocatorIS1_EEE21_ConstructTransactionD1B8ne180100Ev, symObjAddr: 0x16388, symBinAddr: 0x100017C9C, symSize: 0x2C }
  - { offset: 0x31B97, size: 0x8, addend: 0x0, symName: __ZNSt3__16vectorI4RuleNS_9allocatorIS1_EEE21_ConstructTransactionC2B8ne180100ERS4_m, symObjAddr: 0x163B4, symBinAddr: 0x100017CC8, symSize: 0x4C }
  - { offset: 0x31BDF, size: 0x8, addend: 0x0, symName: __ZNSt3__19allocatorI4RuleE9constructB8ne180100IS1_JRKS1_EEEvPT_DpOT0_, symObjAddr: 0x16400, symBinAddr: 0x100017D14, symSize: 0x30 }
  - { offset: 0x31C35, size: 0x8, addend: 0x0, symName: __ZNSt3__117__compressed_pairIP4RuleNS_9allocatorIS1_EEE6secondB8ne180100Ev, symObjAddr: 0x16430, symBinAddr: 0x100017D44, symSize: 0x24 }
  - { offset: 0x31C5B, size: 0x8, addend: 0x0, symName: __ZNSt3__122__compressed_pair_elemINS_9allocatorI4RuleEELi1ELb1EE5__getB8ne180100Ev, symObjAddr: 0x16454, symBinAddr: 0x100017D68, symSize: 0x14 }
  - { offset: 0x31C81, size: 0x8, addend: 0x0, symName: __ZNSt3__16vectorI4RuleNS_9allocatorIS1_EEE21_ConstructTransactionD2B8ne180100Ev, symObjAddr: 0x16468, symBinAddr: 0x100017D7C, symSize: 0x20 }
  - { offset: 0x31CAB, size: 0x8, addend: 0x0, symName: __ZNKSt3__16vectorI4RuleNS_9allocatorIS1_EEE11__recommendB8ne180100Em, symObjAddr: 0x16488, symBinAddr: 0x100017D9C, symSize: 0xB4 }
  - { offset: 0x31D00, size: 0x8, addend: 0x0, symName: __ZNKSt3__16vectorI4RuleNS_9allocatorIS1_EEE4sizeB8ne180100Ev, symObjAddr: 0x1653C, symBinAddr: 0x100017E50, symSize: 0x28 }
  - { offset: 0x31D26, size: 0x8, addend: 0x0, symName: __ZNSt3__114__split_bufferI4RuleRNS_9allocatorIS1_EEEC1EmmS4_, symObjAddr: 0x16564, symBinAddr: 0x100017E78, symSize: 0x44 }
  - { offset: 0x31D7C, size: 0x8, addend: 0x0, symName: __ZNSt3__114__split_bufferI4RuleRNS_9allocatorIS1_EEED1Ev, symObjAddr: 0x166B8, symBinAddr: 0x100017FCC, symSize: 0x2C }
  - { offset: 0x31DA8, size: 0x8, addend: 0x0, symName: __ZNKSt3__16vectorI4RuleNS_9allocatorIS1_EEE8max_sizeEv, symObjAddr: 0x166E4, symBinAddr: 0x100017FF8, symSize: 0x60 }
  - { offset: 0x31DD0, size: 0x8, addend: 0x0, symName: __ZNKSt3__16vectorI4RuleNS_9allocatorIS1_EEE20__throw_length_errorB8ne180100Ev, symObjAddr: 0x16744, symBinAddr: 0x100018058, symSize: 0x1C }
  - { offset: 0x31DF6, size: 0x8, addend: 0x0, symName: __ZNKSt3__16vectorI4RuleNS_9allocatorIS1_EEE8capacityB8ne180100Ev, symObjAddr: 0x16760, symBinAddr: 0x100018074, symSize: 0x40 }
  - { offset: 0x31E27, size: 0x8, addend: 0x0, symName: __ZNSt3__116allocator_traitsINS_9allocatorI4RuleEEE8max_sizeB8ne180100IS3_vEEmRKS3_, symObjAddr: 0x167A0, symBinAddr: 0x1000180B4, symSize: 0x24 }
  - { offset: 0x31E55, size: 0x8, addend: 0x0, symName: __ZNKSt3__16vectorI4RuleNS_9allocatorIS1_EEE7__allocB8ne180100Ev, symObjAddr: 0x167C4, symBinAddr: 0x1000180D8, symSize: 0x28 }
  - { offset: 0x31E7B, size: 0x8, addend: 0x0, symName: __ZNKSt3__19allocatorI4RuleE8max_sizeB8ne180100Ev, symObjAddr: 0x167EC, symBinAddr: 0x100018100, symSize: 0x20 }
  - { offset: 0x31EA1, size: 0x8, addend: 0x0, symName: __ZNKSt3__117__compressed_pairIP4RuleNS_9allocatorIS1_EEE6secondB8ne180100Ev, symObjAddr: 0x1680C, symBinAddr: 0x100018120, symSize: 0x24 }
  - { offset: 0x31EC7, size: 0x8, addend: 0x0, symName: __ZNKSt3__122__compressed_pair_elemINS_9allocatorI4RuleEELi1ELb1EE5__getB8ne180100Ev, symObjAddr: 0x16830, symBinAddr: 0x100018144, symSize: 0x14 }
  - { offset: 0x31EED, size: 0x8, addend: 0x0, symName: __ZNKSt3__16vectorI4RuleNS_9allocatorIS1_EEE9__end_capB8ne180100Ev, symObjAddr: 0x16844, symBinAddr: 0x100018158, symSize: 0x28 }
  - { offset: 0x31F13, size: 0x8, addend: 0x0, symName: __ZNKSt3__117__compressed_pairIP4RuleNS_9allocatorIS1_EEE5firstB8ne180100Ev, symObjAddr: 0x1686C, symBinAddr: 0x100018180, symSize: 0x24 }
  - { offset: 0x31F39, size: 0x8, addend: 0x0, symName: __ZNKSt3__122__compressed_pair_elemIP4RuleLi0ELb0EE5__getB8ne180100Ev, symObjAddr: 0x16890, symBinAddr: 0x1000181A4, symSize: 0x14 }
  - { offset: 0x31F5F, size: 0x8, addend: 0x0, symName: __ZNSt3__114__split_bufferI4RuleRNS_9allocatorIS1_EEEC2EmmS4_, symObjAddr: 0x168A4, symBinAddr: 0x1000181B8, symSize: 0xE0 }
  - { offset: 0x31FD2, size: 0x8, addend: 0x0, symName: __ZNSt3__117__compressed_pairIP4RuleRNS_9allocatorIS1_EEEC1B8ne180100IDnS5_EEOT_OT0_, symObjAddr: 0x16984, symBinAddr: 0x100018298, symSize: 0x3C }
  - { offset: 0x3202A, size: 0x8, addend: 0x0, symName: __ZNSt3__114__split_bufferI4RuleRNS_9allocatorIS1_EEE7__allocB8ne180100Ev, symObjAddr: 0x16A00, symBinAddr: 0x100018314, symSize: 0x28 }
  - { offset: 0x32050, size: 0x8, addend: 0x0, symName: __ZNSt3__114__split_bufferI4RuleRNS_9allocatorIS1_EEE9__end_capB8ne180100Ev, symObjAddr: 0x16A28, symBinAddr: 0x10001833C, symSize: 0x28 }
  - { offset: 0x32076, size: 0x8, addend: 0x0, symName: __ZNSt3__117__compressed_pairIP4RuleRNS_9allocatorIS1_EEEC2B8ne180100IDnS5_EEOT_OT0_, symObjAddr: 0x16A50, symBinAddr: 0x100018364, symSize: 0x48 }
  - { offset: 0x320CE, size: 0x8, addend: 0x0, symName: __ZNSt3__122__compressed_pair_elemIRNS_9allocatorI4RuleEELi1ELb0EEC2B8ne180100IS4_vEEOT_, symObjAddr: 0x16A98, symBinAddr: 0x1000183AC, symSize: 0x20 }
  - { offset: 0x32110, size: 0x8, addend: 0x0, symName: __ZNSt3__19allocatorI4RuleE8allocateB8ne180100Em, symObjAddr: 0x16AB8, symBinAddr: 0x1000183CC, symSize: 0x5C }
  - { offset: 0x32144, size: 0x8, addend: 0x0, symName: __ZNSt3__117__compressed_pairIP4RuleRNS_9allocatorIS1_EEE6secondB8ne180100Ev, symObjAddr: 0x16B14, symBinAddr: 0x100018428, symSize: 0x28 }
  - { offset: 0x3216A, size: 0x8, addend: 0x0, symName: __ZNSt3__122__compressed_pair_elemIRNS_9allocatorI4RuleEELi1ELb0EE5__getB8ne180100Ev, symObjAddr: 0x16B3C, symBinAddr: 0x100018450, symSize: 0x18 }
  - { offset: 0x32190, size: 0x8, addend: 0x0, symName: __ZNSt3__117__compressed_pairIP4RuleRNS_9allocatorIS1_EEE5firstB8ne180100Ev, symObjAddr: 0x16B54, symBinAddr: 0x100018468, symSize: 0x24 }
  - { offset: 0x321B6, size: 0x8, addend: 0x0, symName: __ZNKSt3__16vectorI4RuleNS_9allocatorIS1_EEE17__annotate_deleteB8ne180100Ev, symObjAddr: 0x16B78, symBinAddr: 0x10001848C, symSize: 0x10 }
  - { offset: 0x321DC, size: 0x8, addend: 0x0, symName: __ZNSt3__116reverse_iteratorIP4RuleEC1B8ne180100ES2_, symObjAddr: 0x16CB4, symBinAddr: 0x1000185C8, symSize: 0x34 }
  - { offset: 0x32214, size: 0x8, addend: 0x0, symName: __ZNKSt3__116reverse_iteratorIP4RuleE4baseB8ne180100Ev, symObjAddr: 0x16CE8, symBinAddr: 0x1000185FC, symSize: 0x18 }
  - { offset: 0x3223A, size: 0x8, addend: 0x0, symName: __ZNKSt3__16vectorI4RuleNS_9allocatorIS1_EEE14__annotate_newB8ne180100Em, symObjAddr: 0x16D3C, symBinAddr: 0x100018650, symSize: 0x14 }
  - { offset: 0x3226F, size: 0x8, addend: 0x0, symName: __ZNSt3__129_AllocatorDestroyRangeReverseINS_9allocatorI4RuleEENS_16reverse_iteratorIPS2_EEEC1B8ne180100ERS3_RS6_S9_, symObjAddr: 0x16D9C, symBinAddr: 0x1000186B0, symSize: 0x44 }
  - { offset: 0x322CC, size: 0x8, addend: 0x0, symName: __ZNSt3__116allocator_traitsINS_9allocatorI4RuleEEE9constructB8ne180100IS2_JS2_EvEEvRS3_PT_DpOT0_, symObjAddr: 0x16E28, symBinAddr: 0x10001873C, symSize: 0x34 }
  - { offset: 0x32323, size: 0x8, addend: 0x0, symName: __ZNKSt3__116reverse_iteratorIP4RuleEdeB8ne180100Ev, symObjAddr: 0x16E80, symBinAddr: 0x100018794, symSize: 0x28 }
  - { offset: 0x32357, size: 0x8, addend: 0x0, symName: __ZNSt3__116reverse_iteratorIP4RuleEppB8ne180100Ev, symObjAddr: 0x16EA8, symBinAddr: 0x1000187BC, symSize: 0x20 }
  - { offset: 0x3237D, size: 0x8, addend: 0x0, symName: __ZNSt3__128__exception_guard_exceptionsINS_29_AllocatorDestroyRangeReverseINS_9allocatorI4RuleEENS_16reverse_iteratorIPS3_EEEEE10__completeB8ne180100Ev, symObjAddr: 0x16EC8, symBinAddr: 0x1000187DC, symSize: 0x1C }
  - { offset: 0x323A3, size: 0x8, addend: 0x0, symName: __ZNSt3__128__exception_guard_exceptionsINS_29_AllocatorDestroyRangeReverseINS_9allocatorI4RuleEENS_16reverse_iteratorIPS3_EEEEED1B8ne180100Ev, symObjAddr: 0x16EE4, symBinAddr: 0x1000187F8, symSize: 0x2C }
  - { offset: 0x323CD, size: 0x8, addend: 0x0, symName: __ZNSt3__128__exception_guard_exceptionsINS_29_AllocatorDestroyRangeReverseINS_9allocatorI4RuleEENS_16reverse_iteratorIPS3_EEEEEC1B8ne180100ES8_, symObjAddr: 0x16F10, symBinAddr: 0x100018824, symSize: 0x34 }
  - { offset: 0x32406, size: 0x8, addend: 0x0, symName: __ZNSt3__128__exception_guard_exceptionsINS_29_AllocatorDestroyRangeReverseINS_9allocatorI4RuleEENS_16reverse_iteratorIPS3_EEEEEC2B8ne180100ES8_, symObjAddr: 0x16F44, symBinAddr: 0x100018858, symSize: 0x30 }
  - { offset: 0x3243F, size: 0x8, addend: 0x0, symName: __ZNSt3__129_AllocatorDestroyRangeReverseINS_9allocatorI4RuleEENS_16reverse_iteratorIPS2_EEEC2B8ne180100ERS3_RS6_S9_, symObjAddr: 0x16F74, symBinAddr: 0x100018888, symSize: 0x38 }
  - { offset: 0x32496, size: 0x8, addend: 0x0, symName: __ZNSt3__19allocatorI4RuleE9constructB8ne180100IS1_JS1_EEEvPT_DpOT0_, symObjAddr: 0x16FAC, symBinAddr: 0x1000188C0, symSize: 0x30 }
  - { offset: 0x324EC, size: 0x8, addend: 0x0, symName: __ZN4RuleC1EOS_, symObjAddr: 0x16FDC, symBinAddr: 0x1000188F0, symSize: 0x34 }
  - { offset: 0x32521, size: 0x8, addend: 0x0, symName: __ZN4RuleC2EOS_, symObjAddr: 0x17010, symBinAddr: 0x100018924, symSize: 0x48 }
  - { offset: 0x32556, size: 0x8, addend: 0x0, symName: __ZNSt3__16vectorI9PredicateNS_9allocatorIS1_EEEC1B8ne180100EOS4_, symObjAddr: 0x17058, symBinAddr: 0x10001896C, symSize: 0x34 }
  - { offset: 0x32591, size: 0x8, addend: 0x0, symName: __ZNSt3__16vectorI9PredicateNS_9allocatorIS1_EEEC2B8ne180100EOS4_, symObjAddr: 0x1708C, symBinAddr: 0x1000189A0, symSize: 0xC4 }
  - { offset: 0x325D2, size: 0x8, addend: 0x0, symName: __ZNSt3__117__compressed_pairIP9PredicateNS_9allocatorIS1_EEEC1B8ne180100IDnS4_EEOT_OT0_, symObjAddr: 0x17150, symBinAddr: 0x100018A64, symSize: 0x3C }
  - { offset: 0x3262A, size: 0x8, addend: 0x0, symName: __ZNSt3__117__compressed_pairIP9PredicateNS_9allocatorIS1_EEEC2B8ne180100IDnS4_EEOT_OT0_, symObjAddr: 0x1718C, symBinAddr: 0x100018AA0, symSize: 0x44 }
  - { offset: 0x32682, size: 0x8, addend: 0x0, symName: __ZNSt3__122__compressed_pair_elemINS_9allocatorI9PredicateEELi1ELb1EEC2B8ne180100IS3_vEEOT_, symObjAddr: 0x171D0, symBinAddr: 0x100018AE4, symSize: 0x18 }
  - { offset: 0x326CA, size: 0x8, addend: 0x0, symName: __ZNSt3__119__to_address_helperINS_16reverse_iteratorIP4RuleEEvE6__callB8ne180100ERKS4_, symObjAddr: 0x171E8, symBinAddr: 0x100018AFC, symSize: 0x38 }
  - { offset: 0x326ED, size: 0x8, addend: 0x0, symName: __ZNKSt3__116reverse_iteratorIP4RuleEptB8ne180100Ev, symObjAddr: 0x17220, symBinAddr: 0x100018B34, symSize: 0x24 }
  - { offset: 0x32713, size: 0x8, addend: 0x0, symName: __ZNSt3__128__exception_guard_exceptionsINS_29_AllocatorDestroyRangeReverseINS_9allocatorI4RuleEENS_16reverse_iteratorIPS3_EEEEED2B8ne180100Ev, symObjAddr: 0x17244, symBinAddr: 0x100018B58, symSize: 0x50 }
  - { offset: 0x3273D, size: 0x8, addend: 0x0, symName: __ZNKSt3__129_AllocatorDestroyRangeReverseINS_9allocatorI4RuleEENS_16reverse_iteratorIPS2_EEEclB8ne180100Ev, symObjAddr: 0x17294, symBinAddr: 0x100018BA8, symSize: 0xB4 }
  - { offset: 0x32764, size: 0x8, addend: 0x0, symName: __ZNSt3__116reverse_iteratorINS0_IP4RuleEEEC1B8ne180100ES3_, symObjAddr: 0x173B8, symBinAddr: 0x100018CCC, symSize: 0x3C }
  - { offset: 0x3279C, size: 0x8, addend: 0x0, symName: __ZNSt3__116allocator_traitsINS_9allocatorI4RuleEEE7destroyB8ne180100IS2_vEEvRS3_PT_, symObjAddr: 0x17454, symBinAddr: 0x100018D68, symSize: 0x2C }
  - { offset: 0x327D9, size: 0x8, addend: 0x0, symName: __ZNSt3__116reverse_iteratorINS0_IP4RuleEEEppB8ne180100Ev, symObjAddr: 0x174A4, symBinAddr: 0x100018DB8, symSize: 0x30 }
  - { offset: 0x327FF, size: 0x8, addend: 0x0, symName: __ZNKSt3__116reverse_iteratorINS0_IP4RuleEEE4baseB8ne180100Ev, symObjAddr: 0x174D4, symBinAddr: 0x100018DE8, symSize: 0x24 }
  - { offset: 0x32825, size: 0x8, addend: 0x0, symName: __ZNSt3__19allocatorI4RuleE7destroyB8ne180100EPS1_, symObjAddr: 0x174F8, symBinAddr: 0x100018E0C, symSize: 0x28 }
  - { offset: 0x3285F, size: 0x8, addend: 0x0, symName: __ZNSt3__119__to_address_helperINS_16reverse_iteratorINS1_IP4RuleEEEEvE6__callB8ne180100ERKS5_, symObjAddr: 0x17520, symBinAddr: 0x100018E34, symSize: 0x38 }
  - { offset: 0x32882, size: 0x8, addend: 0x0, symName: __ZNKSt3__116reverse_iteratorINS0_IP4RuleEEEptB8ne180100Ev, symObjAddr: 0x17558, symBinAddr: 0x100018E6C, symSize: 0x24 }
  - { offset: 0x328A8, size: 0x8, addend: 0x0, symName: __ZNKSt3__116reverse_iteratorINS0_IP4RuleEEEdeB8ne180100Ev, symObjAddr: 0x1757C, symBinAddr: 0x100018E90, symSize: 0x34 }
  - { offset: 0x328DC, size: 0x8, addend: 0x0, symName: __ZNSt3__116reverse_iteratorIP4RuleEmmB8ne180100Ev, symObjAddr: 0x175B0, symBinAddr: 0x100018EC4, symSize: 0x20 }
  - { offset: 0x32902, size: 0x8, addend: 0x0, symName: __ZNSt3__116reverse_iteratorINS0_IP4RuleEEEC2B8ne180100ES3_, symObjAddr: 0x175D0, symBinAddr: 0x100018EE4, symSize: 0x2C }
  - { offset: 0x3293A, size: 0x8, addend: 0x0, symName: __ZNSt3__116reverse_iteratorIP4RuleEC2B8ne180100ES2_, symObjAddr: 0x175FC, symBinAddr: 0x100018F10, symSize: 0x28 }
  - { offset: 0x32972, size: 0x8, addend: 0x0, symName: __ZNSt3__114__split_bufferI4RuleRNS_9allocatorIS1_EEED2Ev, symObjAddr: 0x17624, symBinAddr: 0x100018F38, symSize: 0x8C }
  - { offset: 0x3299E, size: 0x8, addend: 0x0, symName: __ZNSt3__114__split_bufferI4RuleRNS_9allocatorIS1_EEE5clearB8ne180100Ev, symObjAddr: 0x176B0, symBinAddr: 0x100018FC4, symSize: 0x28 }
  - { offset: 0x329C4, size: 0x8, addend: 0x0, symName: __ZNSt3__116allocator_traitsINS_9allocatorI4RuleEEE10deallocateB8ne180100ERS3_PS2_m, symObjAddr: 0x176D8, symBinAddr: 0x100018FEC, symSize: 0x34 }
  - { offset: 0x32A06, size: 0x8, addend: 0x0, symName: __ZNKSt3__114__split_bufferI4RuleRNS_9allocatorIS1_EEE8capacityB8ne180100Ev, symObjAddr: 0x1770C, symBinAddr: 0x100019020, symSize: 0x40 }
  - { offset: 0x32A2C, size: 0x8, addend: 0x0, symName: __ZNSt3__114__split_bufferI4RuleRNS_9allocatorIS1_EEE17__destruct_at_endB8ne180100EPS1_, symObjAddr: 0x1774C, symBinAddr: 0x100019060, symSize: 0x2C }
  - { offset: 0x32A60, size: 0x8, addend: 0x0, symName: __ZNSt3__114__split_bufferI4RuleRNS_9allocatorIS1_EEE17__destruct_at_endB8ne180100EPS1_NS_17integral_constantIbLb0EEE, symObjAddr: 0x17778, symBinAddr: 0x10001908C, symSize: 0x80 }
  - { offset: 0x32AA0, size: 0x8, addend: 0x0, symName: __ZNSt3__19allocatorI4RuleE10deallocateB8ne180100EPS1_m, symObjAddr: 0x177F8, symBinAddr: 0x10001910C, symSize: 0x44 }
  - { offset: 0x32AE2, size: 0x8, addend: 0x0, symName: __ZNKSt3__114__split_bufferI4RuleRNS_9allocatorIS1_EEE9__end_capB8ne180100Ev, symObjAddr: 0x1783C, symBinAddr: 0x100019150, symSize: 0x28 }
  - { offset: 0x32B08, size: 0x8, addend: 0x0, symName: __ZNKSt3__117__compressed_pairIP4RuleRNS_9allocatorIS1_EEE5firstB8ne180100Ev, symObjAddr: 0x17864, symBinAddr: 0x100019178, symSize: 0x24 }
  - { offset: 0x32B2E, size: 0x8, addend: 0x0, symName: __ZNSt3__16vectorI4RuleNS_9allocatorIS1_EEE18__insert_with_sizeB8ne180100INS_11__wrap_iterIPS1_EES8_EES8_NS6_IPKS1_EET_T0_l, symObjAddr: 0x17888, symBinAddr: 0x10001919C, symSize: 0x320 }
  - { offset: 0x32C56, size: 0x8, addend: 0x0, symName: __ZNSt3__16vectorI4RuleNS_9allocatorIS1_EEE18__construct_at_endINS_11__wrap_iterIPS1_EES8_EEvT_T0_m, symObjAddr: 0x17CA0, symBinAddr: 0x1000195B4, symSize: 0x9C }
  - { offset: 0x32CCC, size: 0x8, addend: 0x0, symName: __ZNSt3__16vectorI4RuleNS_9allocatorIS1_EEE12__move_rangeEPS1_S5_S5_, symObjAddr: 0x17D3C, symBinAddr: 0x100019650, symSize: 0x13C }
  - { offset: 0x32D88, size: 0x8, addend: 0x0, symName: __ZNSt3__114__split_bufferI4RuleRNS_9allocatorIS1_EEE28__construct_at_end_with_sizeINS_11__wrap_iterIPS1_EEEEvT_m, symObjAddr: 0x17EC8, symBinAddr: 0x1000197DC, symSize: 0xD0 }
  - { offset: 0x32DE4, size: 0x8, addend: 0x0, symName: __ZNSt3__16vectorI4RuleNS_9allocatorIS1_EEE11__make_iterB8ne180100EPS1_, symObjAddr: 0x180E4, symBinAddr: 0x1000199F8, symSize: 0x30 }
  - { offset: 0x32E19, size: 0x8, addend: 0x0, symName: __ZNKSt3__111__wrap_iterIPK4RuleE4baseB8ne180100Ev, symObjAddr: 0x18114, symBinAddr: 0x100019A28, symSize: 0x18 }
  - { offset: 0x32E3F, size: 0x8, addend: 0x0, symName: __ZNKSt3__111__wrap_iterIP4RuleE4baseB8ne180100Ev, symObjAddr: 0x1812C, symBinAddr: 0x100019A40, symSize: 0x18 }
  - { offset: 0x32E65, size: 0x8, addend: 0x0, symName: __ZNSt3__111__wrap_iterIP4RuleEpLB8ne180100El, symObjAddr: 0x18170, symBinAddr: 0x100019A84, symSize: 0x30 }
  - { offset: 0x32EBB, size: 0x8, addend: 0x0, symName: __ZNSt3__14pairIP4RuleS2_EC1B8ne180100IS2_S2_Li0EEEOT_OT0_, symObjAddr: 0x18458, symBinAddr: 0x100019D6C, symSize: 0x3C }
  - { offset: 0x32F19, size: 0x8, addend: 0x0, symName: __ZNSt3__14pairIP4RuleS2_EC2B8ne180100IS2_S2_Li0EEEOT_OT0_, symObjAddr: 0x18494, symBinAddr: 0x100019DA8, symSize: 0x34 }
  - { offset: 0x32F77, size: 0x8, addend: 0x0, symName: __ZNSt3__118__unwrap_iter_implINS_11__wrap_iterIP4RuleEELb1EE8__unwrapB8ne180100ES4_, symObjAddr: 0x184C8, symBinAddr: 0x100019DDC, symSize: 0x28 }
  - { offset: 0x32F9F, size: 0x8, addend: 0x0, symName: __ZNSt3__119__to_address_helperINS_11__wrap_iterIP4RuleEEvE6__callB8ne180100ERKS4_, symObjAddr: 0x18514, symBinAddr: 0x100019E28, symSize: 0x30 }
  - { offset: 0x32FC2, size: 0x8, addend: 0x0, symName: __ZNSt3__114pointer_traitsINS_11__wrap_iterIP4RuleEEE10to_addressB8ne180100ES4_, symObjAddr: 0x18544, symBinAddr: 0x100019E58, symSize: 0x2C }
  - { offset: 0x32FE5, size: 0x8, addend: 0x0, symName: __ZNSt3__129_AllocatorDestroyRangeReverseINS_9allocatorI4RuleEEPS2_EC1B8ne180100ERS3_RS4_S7_, symObjAddr: 0x185BC, symBinAddr: 0x100019ED0, symSize: 0x44 }
  - { offset: 0x3303C, size: 0x8, addend: 0x0, symName: __ZNSt3__116allocator_traitsINS_9allocatorI4RuleEEE9constructB8ne180100IS2_JRS2_EvEEvRS3_PT_DpOT0_, symObjAddr: 0x18600, symBinAddr: 0x100019F14, symSize: 0x34 }
  - { offset: 0x33093, size: 0x8, addend: 0x0, symName: __ZNSt3__128__exception_guard_exceptionsINS_29_AllocatorDestroyRangeReverseINS_9allocatorI4RuleEEPS3_EEE10__completeB8ne180100Ev, symObjAddr: 0x18634, symBinAddr: 0x100019F48, symSize: 0x1C }
  - { offset: 0x330B9, size: 0x8, addend: 0x0, symName: __ZNSt3__128__exception_guard_exceptionsINS_29_AllocatorDestroyRangeReverseINS_9allocatorI4RuleEEPS3_EEED1B8ne180100Ev, symObjAddr: 0x18650, symBinAddr: 0x100019F64, symSize: 0x2C }
  - { offset: 0x330E3, size: 0x8, addend: 0x0, symName: __ZNSt3__128__exception_guard_exceptionsINS_29_AllocatorDestroyRangeReverseINS_9allocatorI4RuleEEPS3_EEEC1B8ne180100ES6_, symObjAddr: 0x1867C, symBinAddr: 0x100019F90, symSize: 0x34 }
  - { offset: 0x3311C, size: 0x8, addend: 0x0, symName: __ZNSt3__128__exception_guard_exceptionsINS_29_AllocatorDestroyRangeReverseINS_9allocatorI4RuleEEPS3_EEEC2B8ne180100ES6_, symObjAddr: 0x186B0, symBinAddr: 0x100019FC4, symSize: 0x30 }
  - { offset: 0x33155, size: 0x8, addend: 0x0, symName: __ZNSt3__129_AllocatorDestroyRangeReverseINS_9allocatorI4RuleEEPS2_EC2B8ne180100ERS3_RS4_S7_, symObjAddr: 0x186E0, symBinAddr: 0x100019FF4, symSize: 0x38 }
  - { offset: 0x331AC, size: 0x8, addend: 0x0, symName: __ZNSt3__19allocatorI4RuleE9constructB8ne180100IS1_JRS1_EEEvPT_DpOT0_, symObjAddr: 0x18718, symBinAddr: 0x10001A02C, symSize: 0x30 }
  - { offset: 0x33202, size: 0x8, addend: 0x0, symName: __ZNSt3__128__exception_guard_exceptionsINS_29_AllocatorDestroyRangeReverseINS_9allocatorI4RuleEEPS3_EEED2B8ne180100Ev, symObjAddr: 0x18748, symBinAddr: 0x10001A05C, symSize: 0x50 }
  - { offset: 0x3322C, size: 0x8, addend: 0x0, symName: __ZNKSt3__129_AllocatorDestroyRangeReverseINS_9allocatorI4RuleEEPS2_EclB8ne180100Ev, symObjAddr: 0x18798, symBinAddr: 0x10001A0AC, symSize: 0x68 }
  - { offset: 0x33252, size: 0x8, addend: 0x0, symName: __ZNSt3__118__unwrap_iter_implIP4RuleLb1EE8__unwrapB8ne180100ES2_, symObjAddr: 0x18870, symBinAddr: 0x10001A184, symSize: 0x24 }
  - { offset: 0x33275, size: 0x8, addend: 0x0, symName: __ZNSt3__118__unwrap_iter_implIP4RuleLb1EE8__rewrapB8ne180100ES2_S2_, symObjAddr: 0x18894, symBinAddr: 0x10001A1A8, symSize: 0x58 }
  - { offset: 0x332A6, size: 0x8, addend: 0x0, symName: __ZNKSt3__120__move_backward_loopINS_17_ClassicAlgPolicyEEclB8ne180100IP4RuleS5_S5_EENS_4pairIT_T1_EES7_T0_S8_, symObjAddr: 0x18AC8, symBinAddr: 0x10001A3DC, symSize: 0xA4 }
  - { offset: 0x3332D, size: 0x8, addend: 0x0, symName: __ZNSt3__18_IterOpsINS_17_ClassicAlgPolicyEE4nextB8ne180100IP4RuleEET_S6_S6_, symObjAddr: 0x18B98, symBinAddr: 0x10001A4AC, symSize: 0x18 }
  - { offset: 0x33369, size: 0x8, addend: 0x0, symName: __ZNSt3__18_IterOpsINS_17_ClassicAlgPolicyEE11__iter_moveB8ne180100IRP4RuleLi0EEEDTclsr3stdE4movedeclsr3stdE7declvalIRT_EEEEOS7_, symObjAddr: 0x18BB0, symBinAddr: 0x10001A4C4, symSize: 0x28 }
  - { offset: 0x3339B, size: 0x8, addend: 0x0, symName: __ZN4RuleaSEOS_, symObjAddr: 0x18BD8, symBinAddr: 0x10001A4EC, symSize: 0x48 }
  - { offset: 0x333CC, size: 0x8, addend: 0x0, symName: __ZNSt3__18_IterOpsINS_17_ClassicAlgPolicyEE25__validate_iter_referenceB8ne180100IRP4RuleEEvv, symObjAddr: 0x18C20, symBinAddr: 0x10001A534, symSize: 0x4 }
  - { offset: 0x333EA, size: 0x8, addend: 0x0, symName: __ZNSt3__16vectorI9PredicateNS_9allocatorIS1_EEEaSB8ne180100EOS4_, symObjAddr: 0x18C24, symBinAddr: 0x10001A538, symSize: 0x34 }
  - { offset: 0x33421, size: 0x8, addend: 0x0, symName: __ZNSt3__16vectorI9PredicateNS_9allocatorIS1_EEE13__move_assignERS4_NS_17integral_constantIbLb1EEE, symObjAddr: 0x18C58, symBinAddr: 0x10001A56C, symSize: 0x94 }
  - { offset: 0x33464, size: 0x8, addend: 0x0, symName: __ZNSt3__16vectorI9PredicateNS_9allocatorIS1_EEE13__vdeallocateEv, symObjAddr: 0x18CEC, symBinAddr: 0x10001A600, symSize: 0x94 }
  - { offset: 0x3348C, size: 0x8, addend: 0x0, symName: __ZNSt3__16vectorI9PredicateNS_9allocatorIS1_EEE19__move_assign_allocB8ne180100ERS4_, symObjAddr: 0x18D80, symBinAddr: 0x10001A694, symSize: 0x2C }
  - { offset: 0x334C1, size: 0x8, addend: 0x0, symName: __ZNSt3__16vectorI9PredicateNS_9allocatorIS1_EEE5clearB8ne180100Ev, symObjAddr: 0x18DAC, symBinAddr: 0x10001A6C0, symSize: 0x44 }
  - { offset: 0x334F6, size: 0x8, addend: 0x0, symName: __ZNSt3__16vectorI9PredicateNS_9allocatorIS1_EEE7__clearB8ne180100Ev, symObjAddr: 0x18DF0, symBinAddr: 0x10001A704, symSize: 0x28 }
  - { offset: 0x3351C, size: 0x8, addend: 0x0, symName: __ZNKSt3__16vectorI9PredicateNS_9allocatorIS1_EEE17__annotate_shrinkB8ne180100Em, symObjAddr: 0x18E18, symBinAddr: 0x10001A72C, symSize: 0x14 }
  - { offset: 0x33551, size: 0x8, addend: 0x0, symName: __ZNSt3__16vectorI9PredicateNS_9allocatorIS1_EEE22__base_destruct_at_endB8ne180100EPS1_, symObjAddr: 0x18E2C, symBinAddr: 0x10001A740, symSize: 0x8C }
  - { offset: 0x33595, size: 0x8, addend: 0x0, symName: __ZNSt3__16vectorI9PredicateNS_9allocatorIS1_EEE19__move_assign_allocB8ne180100ERS4_NS_17integral_constantIbLb1EEE, symObjAddr: 0x18EB8, symBinAddr: 0x10001A7CC, symSize: 0x38 }
  - { offset: 0x335D6, size: 0x8, addend: 0x0, symName: __ZNKSt3__111__copy_loopINS_17_ClassicAlgPolicyEEclB8ne180100IP4RuleS5_S5_EENS_4pairIT_T1_EES7_T0_S8_, symObjAddr: 0x19064, symBinAddr: 0x10001A978, symSize: 0x88 }
  - { offset: 0x33641, size: 0x8, addend: 0x0, symName: __ZN4RuleaSERKS_, symObjAddr: 0x19160, symBinAddr: 0x10001AA74, symSize: 0x48 }
  - { offset: 0x33672, size: 0x8, addend: 0x0, symName: __ZNSt3__16vectorI9PredicateNS_9allocatorIS1_EEEaSB8ne180100ERKS4_, symObjAddr: 0x191A8, symBinAddr: 0x10001AABC, symSize: 0x68 }
  - { offset: 0x336A9, size: 0x8, addend: 0x0, symName: __ZNSt3__16vectorI9PredicateNS_9allocatorIS1_EEE19__copy_assign_allocB8ne180100ERKS4_, symObjAddr: 0x19210, symBinAddr: 0x10001AB24, symSize: 0x2C }
  - { offset: 0x336DE, size: 0x8, addend: 0x0, symName: __ZNSt3__16vectorI9PredicateNS_9allocatorIS1_EEE6assignIPS1_Li0EEEvT_S7_, symObjAddr: 0x1923C, symBinAddr: 0x10001AB50, symSize: 0x5C }
  - { offset: 0x33733, size: 0x8, addend: 0x0, symName: __ZNSt3__16vectorI9PredicateNS_9allocatorIS1_EEE19__copy_assign_allocB8ne180100ERKS4_NS_17integral_constantIbLb0EEE, symObjAddr: 0x19298, symBinAddr: 0x10001ABAC, symSize: 0x14 }
  - { offset: 0x33771, size: 0x8, addend: 0x0, symName: __ZNSt3__16vectorI9PredicateNS_9allocatorIS1_EEE18__assign_with_sizeB8ne180100IPS1_S6_EEvT_T0_l, symObjAddr: 0x192AC, symBinAddr: 0x10001ABC0, symSize: 0x164 }
  - { offset: 0x33821, size: 0x8, addend: 0x0, symName: __ZNSt3__16vectorI9PredicateNS_9allocatorIS1_EEE18__construct_at_endIPS1_S6_EEvT_T0_m, symObjAddr: 0x194B0, symBinAddr: 0x10001ADC4, symSize: 0x8C }
  - { offset: 0x33897, size: 0x8, addend: 0x0, symName: __ZNSt3__16vectorI9PredicateNS_9allocatorIS1_EEE17__destruct_at_endB8ne180100EPS1_, symObjAddr: 0x19580, symBinAddr: 0x10001AE94, symSize: 0x4C }
  - { offset: 0x338DB, size: 0x8, addend: 0x0, symName: __ZNSt3__16vectorI9PredicateNS_9allocatorIS1_EEE11__vallocateB8ne180100Em, symObjAddr: 0x195CC, symBinAddr: 0x10001AEE0, symSize: 0xB4 }
  - { offset: 0x33941, size: 0x8, addend: 0x0, symName: __ZNSt3__14pairINS_11__wrap_iterIP4RuleEES3_EC1B8ne180100IS4_S3_Li0EEEOT_OT0_, symObjAddr: 0x19888, symBinAddr: 0x10001B19C, symSize: 0x3C }
  - { offset: 0x3399F, size: 0x8, addend: 0x0, symName: __ZNSt3__14pairINS_11__wrap_iterIP4RuleEES3_EC2B8ne180100IS4_S3_Li0EEEOT_OT0_, symObjAddr: 0x198C4, symBinAddr: 0x10001B1D8, symSize: 0x34 }
  - { offset: 0x339FD, size: 0x8, addend: 0x0, symName: __ZNSt3__118__unwrap_iter_implINS_11__wrap_iterIP4RuleEELb1EE8__rewrapB8ne180100ES4_S3_, symObjAddr: 0x19944, symBinAddr: 0x10001B258, symSize: 0x5C }
  - { offset: 0x33A2E, size: 0x8, addend: 0x0, symName: __ZNKSt3__111__wrap_iterIP4RuleEplB8ne180100El, symObjAddr: 0x199A0, symBinAddr: 0x10001B2B4, symSize: 0x3C }
  - { offset: 0x33A7A, size: 0x8, addend: 0x0, symName: __ZNSt3__114__split_bufferI4RuleRNS_9allocatorIS1_EEE21_ConstructTransactionC1B8ne180100EPPS1_m, symObjAddr: 0x199DC, symBinAddr: 0x10001B2F0, symSize: 0x3C }
  - { offset: 0x33AC0, size: 0x8, addend: 0x0, symName: __ZNSt3__114__split_bufferI4RuleRNS_9allocatorIS1_EEE21_ConstructTransactionD1B8ne180100Ev, symObjAddr: 0x19A18, symBinAddr: 0x10001B32C, symSize: 0x2C }
  - { offset: 0x33AEA, size: 0x8, addend: 0x0, symName: __ZNSt3__114__split_bufferI4RuleRNS_9allocatorIS1_EEE21_ConstructTransactionC2B8ne180100EPPS1_m, symObjAddr: 0x19A44, symBinAddr: 0x10001B358, symSize: 0x4C }
  - { offset: 0x33B30, size: 0x8, addend: 0x0, symName: __ZNSt3__114__split_bufferI4RuleRNS_9allocatorIS1_EEE21_ConstructTransactionD2B8ne180100Ev, symObjAddr: 0x19A90, symBinAddr: 0x10001B3A4, symSize: 0x20 }
  - { offset: 0x33B5A, size: 0x8, addend: 0x0, symName: __ZNSt3__111__wrap_iterIP4RuleEC1B8ne180100ES2_, symObjAddr: 0x19BA4, symBinAddr: 0x10001B4B8, symSize: 0x34 }
  - { offset: 0x33B92, size: 0x8, addend: 0x0, symName: __ZNSt3__111__wrap_iterIP4RuleEC2B8ne180100ES2_, symObjAddr: 0x19BD8, symBinAddr: 0x10001B4EC, symSize: 0x20 }
  - { offset: 0x33BCA, size: 0x8, addend: 0x0, symName: __ZNSt3__111__wrap_iterIPK4RuleEC2B8ne180100IPS1_Li0EEERKNS0_IT_EE, symObjAddr: 0x19C70, symBinAddr: 0x10001B584, symSize: 0x3C }
  - { offset: 0x33C11, size: 0x8, addend: 0x0, symName: __ZN4RuleC2ERKS_, symObjAddr: 0x19CF4, symBinAddr: 0x10001B608, symSize: 0x70 }
  - { offset: 0x33C46, size: 0x8, addend: 0x0, symName: __ZNSt3__16vectorI9PredicateNS_9allocatorIS1_EEEC1ERKS4_, symObjAddr: 0x19D64, symBinAddr: 0x10001B678, symSize: 0x34 }
  - { offset: 0x33C81, size: 0x8, addend: 0x0, symName: __ZNSt3__16vectorI9PredicateNS_9allocatorIS1_EEEC2ERKS4_, symObjAddr: 0x19D98, symBinAddr: 0x10001B6AC, symSize: 0x94 }
  - { offset: 0x33CBC, size: 0x8, addend: 0x0, symName: __ZNSt3__116allocator_traitsINS_9allocatorI9PredicateEEE37select_on_container_copy_constructionB8ne180100IS3_vvEES3_RKS3_, symObjAddr: 0x19E2C, symBinAddr: 0x10001B740, symSize: 0x10 }
  - { offset: 0x33CEB, size: 0x8, addend: 0x0, symName: __ZNSt3__16vectorI9PredicateNS_9allocatorIS1_EEE16__init_with_sizeB8ne180100IPS1_S6_EEvT_T0_m, symObjAddr: 0x19E3C, symBinAddr: 0x10001B750, symSize: 0xB8 }
  - { offset: 0x33D5F, size: 0x8, addend: 0x0, symName: __ZNSt3__16vectorI9PredicateNS_9allocatorIS1_EEE16__destroy_vectorC1B8ne180100ERS4_, symObjAddr: 0x19F34, symBinAddr: 0x10001B848, symSize: 0x34 }
  - { offset: 0x33D98, size: 0x8, addend: 0x0, symName: __ZNSt3__128__exception_guard_exceptionsINS_6vectorI9PredicateNS_9allocatorIS2_EEE16__destroy_vectorEE10__completeB8ne180100Ev, symObjAddr: 0x19F68, symBinAddr: 0x10001B87C, symSize: 0x1C }
  - { offset: 0x33DBE, size: 0x8, addend: 0x0, symName: __ZNSt3__128__exception_guard_exceptionsINS_6vectorI9PredicateNS_9allocatorIS2_EEE16__destroy_vectorEED1B8ne180100Ev, symObjAddr: 0x19F84, symBinAddr: 0x10001B898, symSize: 0x2C }
  - { offset: 0x33DE8, size: 0x8, addend: 0x0, symName: __ZNSt3__128__exception_guard_exceptionsINS_6vectorI9PredicateNS_9allocatorIS2_EEE16__destroy_vectorEEC1B8ne180100ES6_, symObjAddr: 0x19FB0, symBinAddr: 0x10001B8C4, symSize: 0x34 }
  - { offset: 0x33E20, size: 0x8, addend: 0x0, symName: __ZNSt3__128__exception_guard_exceptionsINS_6vectorI9PredicateNS_9allocatorIS2_EEE16__destroy_vectorEEC2B8ne180100ES6_, symObjAddr: 0x19FE4, symBinAddr: 0x10001B8F8, symSize: 0x24 }
  - { offset: 0x33E58, size: 0x8, addend: 0x0, symName: __ZNSt3__16vectorI9PredicateNS_9allocatorIS1_EEE16__destroy_vectorC2B8ne180100ERS4_, symObjAddr: 0x1A008, symBinAddr: 0x10001B91C, symSize: 0x20 }
  - { offset: 0x33E91, size: 0x8, addend: 0x0, symName: __ZNSt3__128__exception_guard_exceptionsINS_6vectorI9PredicateNS_9allocatorIS2_EEE16__destroy_vectorEED2B8ne180100Ev, symObjAddr: 0x1A028, symBinAddr: 0x10001B93C, symSize: 0x50 }
  - { offset: 0x33EBB, size: 0x8, addend: 0x0, symName: __ZNSt3__16vectorI9PredicateNS_9allocatorIS1_EEE16__destroy_vectorclB8ne180100Ev, symObjAddr: 0x1A078, symBinAddr: 0x10001B98C, symSize: 0x90 }
  - { offset: 0x33EE1, size: 0x8, addend: 0x0, symName: __ZN4RuleD2Ev, symObjAddr: 0x1A108, symBinAddr: 0x10001BA1C, symSize: 0x38 }
  - { offset: 0x33F0D, size: 0x8, addend: 0x0, symName: __ZNSt3__16vectorI9PredicateNS_9allocatorIS1_EEED2B8ne180100Ev, symObjAddr: 0x1A140, symBinAddr: 0x10001BA54, symSize: 0x40 }
  - { offset: 0x33F37, size: 0x8, addend: 0x0, symName: __ZNSt3__16vectorI4RuleNS_9allocatorIS1_EEED2B8ne180100Ev, symObjAddr: 0x1A180, symBinAddr: 0x10001BA94, symSize: 0x44 }
  - { offset: 0x33F61, size: 0x8, addend: 0x0, symName: __ZNSt3__16vectorI4RuleNS_9allocatorIS1_EEE16__destroy_vectorC1B8ne180100ERS4_, symObjAddr: 0x1A1C4, symBinAddr: 0x10001BAD8, symSize: 0x34 }
  - { offset: 0x33F9A, size: 0x8, addend: 0x0, symName: __ZNSt3__16vectorI4RuleNS_9allocatorIS1_EEE16__destroy_vectorclB8ne180100Ev, symObjAddr: 0x1A1F8, symBinAddr: 0x10001BB0C, symSize: 0x90 }
  - { offset: 0x33FC0, size: 0x8, addend: 0x0, symName: __ZNSt3__16vectorI4RuleNS_9allocatorIS1_EEE16__destroy_vectorC2B8ne180100ERS4_, symObjAddr: 0x1A288, symBinAddr: 0x10001BB9C, symSize: 0x20 }
  - { offset: 0x33FF9, size: 0x8, addend: 0x0, symName: __ZNSt3__16vectorI4RuleNS_9allocatorIS1_EEE7__clearB8ne180100Ev, symObjAddr: 0x1A2A8, symBinAddr: 0x10001BBBC, symSize: 0x28 }
  - { offset: 0x3401F, size: 0x8, addend: 0x0, symName: __ZNSt3__16vectorI4RuleNS_9allocatorIS1_EEE22__base_destruct_at_endB8ne180100EPS1_, symObjAddr: 0x1A2D0, symBinAddr: 0x10001BBE4, symSize: 0x8C }
  - { offset: 0x34063, size: 0x8, addend: 0x0, symName: __ZNSt3__13setINS_12basic_stringIcNS_11char_traitsIcEENS_9allocatorIcEEEENS_4lessIS6_EENS4_IS6_EEED2B8ne180100Ev, symObjAddr: 0x1A35C, symBinAddr: 0x10001BC70, symSize: 0x2C }
  - { offset: 0x3408D, size: 0x8, addend: 0x0, symName: __ZNSt3__16__treeINS_12basic_stringIcNS_11char_traitsIcEENS_9allocatorIcEEEENS_4lessIS6_EENS4_IS6_EEED1Ev, symObjAddr: 0x1A388, symBinAddr: 0x10001BC9C, symSize: 0x2C }
  - { offset: 0x340B9, size: 0x8, addend: 0x0, symName: __ZNSt3__16__treeINS_12basic_stringIcNS_11char_traitsIcEENS_9allocatorIcEEEENS_4lessIS6_EENS4_IS6_EEED2Ev, symObjAddr: 0x1A3B4, symBinAddr: 0x10001BCC8, symSize: 0x38 }
  - { offset: 0x340E5, size: 0x8, addend: 0x0, symName: __ZNSt3__16__treeINS_12basic_stringIcNS_11char_traitsIcEENS_9allocatorIcEEEENS_4lessIS6_EENS4_IS6_EEE7destroyEPNS_11__tree_nodeIS6_PvEE, symObjAddr: 0x1A3EC, symBinAddr: 0x10001BD00, symSize: 0xA4 }
  - { offset: 0x34198, size: 0x8, addend: 0x0, symName: __ZNSt3__118basic_stringstreamIcNS_11char_traitsIcEENS_9allocatorIcEEEC1B8ne180100Ev, symObjAddr: 0x1A490, symBinAddr: 0x10001BDA4, symSize: 0xF4 }
  - { offset: 0x341C2, size: 0x8, addend: 0x0, symName: __ZNSt3__16vectorI9PredicateNS_9allocatorIS1_EEEixB8ne180100Em, symObjAddr: 0x1A584, symBinAddr: 0x10001BE98, symSize: 0x2C }
  - { offset: 0x341F9, size: 0x8, addend: 0x0, symName: __ZN9Predicate8toStringEv, symObjAddr: 0x1A5B0, symBinAddr: 0x10001BEC4, symSize: 0x1A0 }
  - { offset: 0x34243, size: 0x8, addend: 0x0, symName: __ZNSt3__16vectorI4RuleNS_9allocatorIS1_EEEixB8ne180100Em, symObjAddr: 0x1A750, symBinAddr: 0x10001C064, symSize: 0x2C }
  - { offset: 0x3427A, size: 0x8, addend: 0x0, symName: __ZN4Rule8toStringEv, symObjAddr: 0x1A77C, symBinAddr: 0x10001C090, symSize: 0x1B4 }
  - { offset: 0x342C4, size: 0x8, addend: 0x0, symName: __ZNKSt3__13setINS_12basic_stringIcNS_11char_traitsIcEENS_9allocatorIcEEEENS_4lessIS6_EENS4_IS6_EEE4sizeB8ne180100Ev, symObjAddr: 0x1A930, symBinAddr: 0x10001C244, symSize: 0x28 }
  - { offset: 0x342EA, size: 0x8, addend: 0x0, symName: __ZNSt3__13setINS_12basic_stringIcNS_11char_traitsIcEENS_9allocatorIcEEEENS_4lessIS6_EENS4_IS6_EEE5beginB8ne180100Ev, symObjAddr: 0x1A958, symBinAddr: 0x10001C26C, symSize: 0x38 }
  - { offset: 0x34310, size: 0x8, addend: 0x0, symName: __ZNSt3__13setINS_12basic_stringIcNS_11char_traitsIcEENS_9allocatorIcEEEENS_4lessIS6_EENS4_IS6_EEE3endB8ne180100Ev, symObjAddr: 0x1A9C4, symBinAddr: 0x10001C2D8, symSize: 0x38 }
  - { offset: 0x34336, size: 0x8, addend: 0x0, symName: __ZNKSt3__121__tree_const_iteratorINS_12basic_stringIcNS_11char_traitsIcEENS_9allocatorIcEEEEPNS_11__tree_nodeIS6_PvEElEdeB8ne180100Ev, symObjAddr: 0x1A9FC, symBinAddr: 0x10001C310, symSize: 0x28 }
  - { offset: 0x3435C, size: 0x8, addend: 0x0, symName: __ZNSt3__121__tree_const_iteratorINS_12basic_stringIcNS_11char_traitsIcEENS_9allocatorIcEEEEPNS_11__tree_nodeIS6_PvEElEppB8ne180100Ei, symObjAddr: 0x1AA24, symBinAddr: 0x10001C338, symSize: 0x34 }
  - { offset: 0x3439D, size: 0x8, addend: 0x0, symName: __ZNKSt3__118basic_stringstreamIcNS_11char_traitsIcEENS_9allocatorIcEEE3strB8ne180100Ev, symObjAddr: 0x1AA58, symBinAddr: 0x10001C36C, symSize: 0x30 }
  - { offset: 0x343C8, size: 0x8, addend: 0x0, symName: __ZNSt3__118basic_stringstreamIcNS_11char_traitsIcEENS_9allocatorIcEEED1Ev, symObjAddr: 0x1AA88, symBinAddr: 0x10001C39C, symSize: 0x40 }
  - { offset: 0x343F5, size: 0x8, addend: 0x0, symName: __ZNSt3__19basic_iosIcNS_11char_traitsIcEEEC2B8ne180100Ev, symObjAddr: 0x1AAC8, symBinAddr: 0x10001C3DC, symSize: 0x3C }
  - { offset: 0x3441F, size: 0x8, addend: 0x0, symName: __ZNSt3__114basic_iostreamIcNS_11char_traitsIcEEEC2B8ne180100EPNS_15basic_streambufIcS2_EE, symObjAddr: 0x1AB04, symBinAddr: 0x10001C418, symSize: 0xAC }
  - { offset: 0x34465, size: 0x8, addend: 0x0, symName: __ZNSt3__115basic_stringbufIcNS_11char_traitsIcEENS_9allocatorIcEEEC1B8ne180100Ej, symObjAddr: 0x1ABB0, symBinAddr: 0x10001C4C4, symSize: 0x34 }
  - { offset: 0x3449E, size: 0x8, addend: 0x0, symName: __ZNSt3__18ios_baseC2B8ne180100Ev, symObjAddr: 0x1ABE4, symBinAddr: 0x10001C4F8, symSize: 0x24 }
  - { offset: 0x344C8, size: 0x8, addend: 0x0, symName: __ZNSt3__113basic_istreamIcNS_11char_traitsIcEEEC2B8ne180100EPNS_15basic_streambufIcS2_EE, symObjAddr: 0x1AC08, symBinAddr: 0x10001C51C, symSize: 0x64 }
  - { offset: 0x3450D, size: 0x8, addend: 0x0, symName: __ZNSt3__113basic_ostreamIcNS_11char_traitsIcEEEC2B8ne180100Ev, symObjAddr: 0x1AC6C, symBinAddr: 0x10001C580, symSize: 0x34 }
  - { offset: 0x34544, size: 0x8, addend: 0x0, symName: __ZNSt3__19basic_iosIcNS_11char_traitsIcEEE4initB8ne180100EPNS_15basic_streambufIcS2_EE, symObjAddr: 0x1ACA0, symBinAddr: 0x10001C5B4, symSize: 0x44 }
  - { offset: 0x3457B, size: 0x8, addend: 0x0, symName: __ZNSt3__115basic_stringbufIcNS_11char_traitsIcEENS_9allocatorIcEEEC2B8ne180100Ej, symObjAddr: 0x1ACE4, symBinAddr: 0x10001C5F8, symSize: 0x58 }
  - { offset: 0x345B4, size: 0x8, addend: 0x0, symName: __ZNSt3__16vectorI9ParameterNS_9allocatorIS1_EEEixB8ne180100Em, symObjAddr: 0x1AD3C, symBinAddr: 0x10001C650, symSize: 0x2C }
  - { offset: 0x345EB, size: 0x8, addend: 0x0, symName: __ZNKSt3__16__treeINS_12basic_stringIcNS_11char_traitsIcEENS_9allocatorIcEEEENS_4lessIS6_EENS4_IS6_EEE4sizeB8ne180100Ev, symObjAddr: 0x1AD68, symBinAddr: 0x10001C67C, symSize: 0x28 }
  - { offset: 0x34611, size: 0x8, addend: 0x0, symName: __ZNKSt3__117__compressed_pairImNS_4lessINS_12basic_stringIcNS_11char_traitsIcEENS_9allocatorIcEEEEEEE5firstB8ne180100Ev, symObjAddr: 0x1AD90, symBinAddr: 0x10001C6A4, symSize: 0x24 }
  - { offset: 0x34637, size: 0x8, addend: 0x0, symName: __ZNKSt3__122__compressed_pair_elemImLi0ELb0EE5__getB8ne180100Ev, symObjAddr: 0x1ADB4, symBinAddr: 0x10001C6C8, symSize: 0x14 }
  - { offset: 0x3465D, size: 0x8, addend: 0x0, symName: __ZNSt3__16__treeINS_12basic_stringIcNS_11char_traitsIcEENS_9allocatorIcEEEENS_4lessIS6_EENS4_IS6_EEE5beginB8ne180100Ev, symObjAddr: 0x1ADC8, symBinAddr: 0x10001C6DC, symSize: 0x34 }
  - { offset: 0x34683, size: 0x8, addend: 0x0, symName: __ZNSt3__115__tree_iteratorINS_12basic_stringIcNS_11char_traitsIcEENS_9allocatorIcEEEEPNS_11__tree_nodeIS6_PvEElEC1B8ne180100EPNS_15__tree_end_nodeIPNS_16__tree_node_baseIS8_EEEE, symObjAddr: 0x1ADFC, symBinAddr: 0x10001C710, symSize: 0x34 }
  - { offset: 0x346BC, size: 0x8, addend: 0x0, symName: __ZNSt3__115__tree_iteratorINS_12basic_stringIcNS_11char_traitsIcEENS_9allocatorIcEEEEPNS_11__tree_nodeIS6_PvEElEC2B8ne180100EPNS_15__tree_end_nodeIPNS_16__tree_node_baseIS8_EEEE, symObjAddr: 0x1AE30, symBinAddr: 0x10001C744, symSize: 0x20 }
  - { offset: 0x346F5, size: 0x8, addend: 0x0, symName: __ZNSt3__16__treeINS_12basic_stringIcNS_11char_traitsIcEENS_9allocatorIcEEEENS_4lessIS6_EENS4_IS6_EEE3endB8ne180100Ev, symObjAddr: 0x1AE80, symBinAddr: 0x10001C794, symSize: 0x34 }
  - { offset: 0x3471B, size: 0x8, addend: 0x0, symName: __ZNKSt3__121__tree_const_iteratorINS_12basic_stringIcNS_11char_traitsIcEENS_9allocatorIcEEEEPNS_11__tree_nodeIS6_PvEElE8__get_npB8ne180100Ev, symObjAddr: 0x1AEB4, symBinAddr: 0x10001C7C8, symSize: 0x18 }
  - { offset: 0x34741, size: 0x8, addend: 0x0, symName: __ZNSt3__121__tree_const_iteratorINS_12basic_stringIcNS_11char_traitsIcEENS_9allocatorIcEEEEPNS_11__tree_nodeIS6_PvEElEppB8ne180100Ev, symObjAddr: 0x1AECC, symBinAddr: 0x10001C7E0, symSize: 0x38 }
  - { offset: 0x34767, size: 0x8, addend: 0x0, symName: __ZNSt3__118basic_stringstreamIcNS_11char_traitsIcEENS_9allocatorIcEEED2Ev, symObjAddr: 0x1AFC4, symBinAddr: 0x10001C8D8, symSize: 0x6C }
  - { offset: 0x347A1, size: 0x8, addend: 0x0, symName: __ZThn16_NSt3__118basic_stringstreamIcNS_11char_traitsIcEENS_9allocatorIcEEED1Ev, symObjAddr: 0x1B030, symBinAddr: 0x10001C944, symSize: 0x1C }
  - { offset: 0x347B8, size: 0x8, addend: 0x0, symName: __ZTv0_n24_NSt3__118basic_stringstreamIcNS_11char_traitsIcEENS_9allocatorIcEEED1Ev, symObjAddr: 0x1B04C, symBinAddr: 0x10001C960, symSize: 0x28 }
  - { offset: 0x347D4, size: 0x8, addend: 0x0, symName: __ZNSt3__115basic_stringbufIcNS_11char_traitsIcEENS_9allocatorIcEEED1Ev, symObjAddr: 0x1B074, symBinAddr: 0x10001C988, symSize: 0x2C }
  - { offset: 0x34801, size: 0x8, addend: 0x0, symName: __ZNSt3__115basic_stringbufIcNS_11char_traitsIcEENS_9allocatorIcEEED2Ev, symObjAddr: 0x1B0A0, symBinAddr: 0x10001C9B4, symSize: 0x48 }
  - { offset: 0x3482E, size: 0x8, addend: 0x0, symName: __ZN14DatalogProgramD2Ev, symObjAddr: 0x1B0E8, symBinAddr: 0x10001C9FC, symSize: 0x5C }
  - { offset: 0x3485A, size: 0x8, addend: 0x0, symName: __ZNKSt3__16vectorI5TokenNS_9allocatorIS1_EEE20__throw_out_of_rangeB8ne180100Ev, symObjAddr: 0x1B144, symBinAddr: 0x10001CA58, symSize: 0x1C }
  - { offset: 0x34880, size: 0x8, addend: 0x0, symName: __ZNSt12out_of_rangeC1B8ne180100EPKc, symObjAddr: 0x1B1C4, symBinAddr: 0x10001CAD8, symSize: 0x34 }
  - { offset: 0x348B8, size: 0x8, addend: 0x0, symName: __ZNSt12out_of_rangeC2B8ne180100EPKc, symObjAddr: 0x1B1F8, symBinAddr: 0x10001CB0C, symSize: 0x44 }
  - { offset: 0x348F0, size: 0x8, addend: 0x0, symName: __ZNK5Token8typeNameE9TokenType, symObjAddr: 0x1B23C, symBinAddr: 0x10001CB50, symSize: 0x30C }
  - { offset: 0x34924, size: 0x8, addend: 0x0, symName: __ZN6ParserD2Ev, symObjAddr: 0x1B548, symBinAddr: 0x10001CE5C, symSize: 0x2C }
  - { offset: 0x34950, size: 0x8, addend: 0x0, symName: __ZN7ScannerD2Ev, symObjAddr: 0x1B574, symBinAddr: 0x10001CE88, symSize: 0x2C }
  - { offset: 0x3497C, size: 0x8, addend: 0x0, symName: __ZNSt3__114basic_ifstreamIcNS_11char_traitsIcEEED2Ev, symObjAddr: 0x1B5A0, symBinAddr: 0x10001CEB4, symSize: 0x64 }
  - { offset: 0x349B6, size: 0x8, addend: 0x0, symName: __ZTv0_n24_NSt3__114basic_ifstreamIcNS_11char_traitsIcEEED1Ev, symObjAddr: 0x1B604, symBinAddr: 0x10001CF18, symSize: 0x28 }
  - { offset: 0x349CD, size: 0x8, addend: 0x0, symName: __ZNSt3__112basic_stringIcNS_11char_traitsIcEENS_9allocatorIcEEEC2B8ne180100ILi0EEEPKc, symObjAddr: 0x1B62C, symBinAddr: 0x10001CF40, symSize: 0x58 }
  - { offset: 0x34A0C, size: 0x8, addend: 0x0, symName: __ZNSt3__16vectorI5TokenNS_9allocatorIS1_EEED2B8ne180100Ev, symObjAddr: 0x1B684, symBinAddr: 0x10001CF98, symSize: 0x40 }
  - { offset: 0x34A36, size: 0x8, addend: 0x0, symName: __ZNSt3__113basic_filebufIcNS_11char_traitsIcEEE4openERKNS_12basic_stringIcS2_NS_9allocatorIcEEEEj, symObjAddr: 0x1B6C4, symBinAddr: 0x10001CFD8, symSize: 0x44 }
  - { offset: 0x34A7C, size: 0x8, addend: 0x0, symName: __ZNKSt3__112basic_stringIcNS_11char_traitsIcEENS_9allocatorIcEEE5c_strB8ne180100Ev, symObjAddr: 0x1B708, symBinAddr: 0x10001D01C, symSize: 0x24 }
  - { offset: 0x34AA2, size: 0x8, addend: 0x0, symName: __ZNKSt3__19basic_iosIcNS_11char_traitsIcEEE4failB8ne180100Ev, symObjAddr: 0x1B72C, symBinAddr: 0x10001D040, symSize: 0x28 }
  - { offset: 0x34AC8, size: 0x8, addend: 0x0, symName: __ZNKSt3__18ios_base4failB8ne180100Ev, symObjAddr: 0x1B754, symBinAddr: 0x10001D068, symSize: 0x28 }
  - { offset: 0x34AF0, size: 0x8, addend: 0x0, symName: __ZNSt3__119istreambuf_iteratorIcNS_11char_traitsIcEEEC2B8ne180100ERNS_13basic_istreamIcS2_EE, symObjAddr: 0x1B77C, symBinAddr: 0x10001D090, symSize: 0x54 }
  - { offset: 0x34B28, size: 0x8, addend: 0x0, symName: __ZNSt3__112basic_stringIcNS_11char_traitsIcEENS_9allocatorIcEEEC2B8ne180100INS_19istreambuf_iteratorIcS2_EELi0EEET_S9_, symObjAddr: 0x1B7D0, symBinAddr: 0x10001D0E4, symSize: 0x5C }
  - { offset: 0x34B7F, size: 0x8, addend: 0x0, symName: __ZNSt3__112basic_stringIcNS_11char_traitsIcEENS_9allocatorIcEEE6__initINS_19istreambuf_iteratorIcS2_EELi0EEEvT_S9_, symObjAddr: 0x1B82C, symBinAddr: 0x10001D140, symSize: 0x44 }
  - { offset: 0x34BD4, size: 0x8, addend: 0x0, symName: __ZNSt3__112basic_stringIcNS_11char_traitsIcEENS_9allocatorIcEEE20__init_with_sentinelB8ne180100INS_19istreambuf_iteratorIcS2_EES8_EEvT_T0_, symObjAddr: 0x1B870, symBinAddr: 0x10001D184, symSize: 0x158 }
  - { offset: 0x34C2C, size: 0x8, addend: 0x0, symName: __ZNKSt3__119istreambuf_iteratorIcNS_11char_traitsIcEEEdeB8ne180100Ev, symObjAddr: 0x1B9FC, symBinAddr: 0x10001D310, symSize: 0x2C }
  - { offset: 0x34C52, size: 0x8, addend: 0x0, symName: __ZNSt3__119istreambuf_iteratorIcNS_11char_traitsIcEEEppB8ne180100Ev, symObjAddr: 0x1BA28, symBinAddr: 0x10001D33C, symSize: 0x30 }
  - { offset: 0x34C78, size: 0x8, addend: 0x0, symName: __ZNKSt3__119istreambuf_iteratorIcNS_11char_traitsIcEEE5equalB8ne180100ERKS3_, symObjAddr: 0x1BA58, symBinAddr: 0x10001D36C, symSize: 0x4C }
  - { offset: 0x34CAC, size: 0x8, addend: 0x0, symName: __ZNKSt3__119istreambuf_iteratorIcNS_11char_traitsIcEEE14__test_for_eofB8ne180100Ev, symObjAddr: 0x1BAA4, symBinAddr: 0x10001D3B8, symSize: 0x80 }
  - { offset: 0x34CD2, size: 0x8, addend: 0x0, symName: __ZNSt3__115basic_streambufIcNS_11char_traitsIcEEE5sgetcB8ne180100Ev, symObjAddr: 0x1BB24, symBinAddr: 0x10001D438, symSize: 0x70 }
  - { offset: 0x34CF8, size: 0x8, addend: 0x0, symName: __ZNSt3__111char_traitsIcE11to_int_typeB8ne180100Ec, symObjAddr: 0x1BB94, symBinAddr: 0x10001D4A8, symSize: 0x14 }
  - { offset: 0x34D1C, size: 0x8, addend: 0x0, symName: __ZNSt3__115basic_streambufIcNS_11char_traitsIcEEE6sbumpcB8ne180100Ev, symObjAddr: 0x1BBA8, symBinAddr: 0x10001D4BC, symSize: 0x78 }
...
